C51 COMPILER V9.51   INTERFACE                                                             04/29/2014 22:13:13 PAGE 1   


C51 COMPILER V9.51, COMPILATION OF MODULE INTERFACE
OBJECT MODULE PLACED IN .\DP8051\DP8051_Keil_951\Debug\Interface.obj
COMPILER INVOKED BY: C:\Program Files (x86)\Cypress\PSoC Creator\3.0\PSoC Creator\import\keil\pk51\9.51\C51\BIN\c51.exe 
                    -.\Interface.c NOIV LARGE MODDP2 OMF2 VB(1) PR(.\DP8051\DP8051_Keil_951\Debug\Interface.lst) CD DB NOIP OT(0,SIZE) DF(DEB
                    -UG) INCDIR(.,.\Generated_Source\PSoC3) OJ(.\DP8051\DP8051_Keil_951\Debug\Interface.obj)

line level    source

   1          /* ========================================
   2           *
   3           * Copyright YOUR COMPANY, THE YEAR
   4           * All Rights Reserved
   5           * UNPUBLISHED, LICENSED SOFTWARE.
   6           *
   7           * CONFIDENTIAL AND PROPRIETARY INFORMATION
   8           * WHICH IS THE PROPERTY OF your company.
   9           *
  10           * ========================================
  11          */
  12          
  13          #include "Interface.h"
  14          
  15          void Hibernate_ISR(){
  16   1          
  17   1          return;   
  18   1      }
  19          
  20          void StartCollection_ISR(){
  21   1          
  22   1          struct header_package header;
  23   1          uint8 header_size = sizeof(struct header_package);
  24   1          RTC_TIME_DATE* datetime = RTC_ReadTime();
  25   1          
  26   1          /* Store Header */
  27   1          header.start_block = STARTBLOCK;
  28   1          header.sample_sensor = get_variable(EE_SENSOR);
  29   1          header.sample_unit = get_variable(EE_SAMPLE_UNIT);
  30   1          header.sample_interval = get_variable(EE_SAMPLE_INTERVAL);
  31   1          header.second = datetime -> Sec;
  32   1          header.minute = datetime -> Min;
  33   1          header.hour = datetime -> Hour;
  34   1          header.day = datetime -> DayOfMonth;
  35   1          header.month = datetime -> Month;
  36   1          header.year = datetime -> Year;
  37   1      
  38   1          Em_EEPROM_Write((uint8*) (&header), TailPtr, header_size);
  39   1          TailPtr = TailPtr + header_size;
  40   1          
  41   1          StopCollection_IRQ_Start();
  42   1          StartCollection_IRQ_Stop();
  43   1          TakeSample_IRQ_Start();
  44   1          
  45   1          return;   
  46   1      }
  47          
  48          void StopCollection_ISR(){
  49   1          
  50   1          StartCollection_IRQ_Start();
  51   1          StopCollection_IRQ_Stop();
  52   1          TakeSample_IRQ_Stop();
  53   1          
C51 COMPILER V9.51   INTERFACE                                                             04/29/2014 22:13:13 PAGE 2   

  54   1          return;   
  55   1      }
  56          
  57          /* [] END OF FILE */
C51 COMPILER V9.51   INTERFACE                                                             04/29/2014 22:13:13 PAGE 3   

ASSEMBLY LISTING OF GENERATED OBJECT CODE


             ; FUNCTION Hibernate_ISR (BEGIN)
                                           ; SOURCE LINE # 15
                                           ; SOURCE LINE # 18
0000         ?C0001:
0000 22                RET     
             ; FUNCTION Hibernate_ISR (END)

             ; FUNCTION StartCollection_ISR (BEGIN)
                                           ; SOURCE LINE # 20
                                           ; SOURCE LINE # 23
0000 900000      R     MOV     DPTR,#header_size
0003 740C              MOV     A,#0CH
0005 F0                MOVX    @DPTR,A
                                           ; SOURCE LINE # 24
0006 120000      E     LCALL   RTC_ReadTime
0009 900000      R     MOV     DPTR,#datetime
000C 120000      E     LCALL   ?C?PSTXDATA
                                           ; SOURCE LINE # 27
000F 900000      R     MOV     DPTR,#header
0012 7420              MOV     A,#020H
0014 F0                MOVX    @DPTR,A
0015 A3                INC     DPTR
0016 E4                CLR     A
0017 F0                MOVX    @DPTR,A
                                           ; SOURCE LINE # 28
0018 7F00              MOV     R7,#00H
001A 7E00              MOV     R6,#00H
001C 120000      E     LCALL   _get_variable
001F 900000      R     MOV     DPTR,#header+04H
0022 EF                MOV     A,R7
0023 F0                MOVX    @DPTR,A
                                           ; SOURCE LINE # 29
0024 7F01              MOV     R7,#01H
0026 7E00              MOV     R6,#00H
0028 120000      E     LCALL   _get_variable
002B 900000      R     MOV     DPTR,#header+05H
002E EF                MOV     A,R7
002F F0                MOVX    @DPTR,A
                                           ; SOURCE LINE # 30
0030 7F02              MOV     R7,#02H
0032 7E00              MOV     R6,#00H
0034 120000      E     LCALL   _get_variable
0037 900000      R     MOV     DPTR,#header+06H
003A EF                MOV     A,R7
003B F0                MOVX    @DPTR,A
                                           ; SOURCE LINE # 31
003C 900000      R     MOV     DPTR,#datetime
003F 120000      E     LCALL   ?C?PLDXDATA
0042 120000      E     LCALL   ?C?CLDPTR
0045 FF                MOV     R7,A
0046 900000      R     MOV     DPTR,#header+07H
0049 EF                MOV     A,R7
004A F0                MOVX    @DPTR,A
                                           ; SOURCE LINE # 32
004B 900000      R     MOV     DPTR,#datetime
004E 120000      E     LCALL   ?C?PLDXDATA
0051 E9                MOV     A,R1
0052 2401              ADD     A,#01H
0054 F9                MOV     R1,A
C51 COMPILER V9.51   INTERFACE                                                             04/29/2014 22:13:13 PAGE 4   

0055 EA                MOV     A,R2
0056 3400              ADDC    A,#00H
0058 FA                MOV     R2,A
0059 120000      E     LCALL   ?C?CLDPTR
005C FF                MOV     R7,A
005D 900000      R     MOV     DPTR,#header+08H
0060 EF                MOV     A,R7
0061 F0                MOVX    @DPTR,A
                                           ; SOURCE LINE # 33
0062 900000      R     MOV     DPTR,#datetime
0065 120000      E     LCALL   ?C?PLDXDATA
0068 E9                MOV     A,R1
0069 2402              ADD     A,#02H
006B F9                MOV     R1,A
006C EA                MOV     A,R2
006D 3400              ADDC    A,#00H
006F FA                MOV     R2,A
0070 120000      E     LCALL   ?C?CLDPTR
0073 FF                MOV     R7,A
0074 900000      R     MOV     DPTR,#header+09H
0077 EF                MOV     A,R7
0078 F0                MOVX    @DPTR,A
                                           ; SOURCE LINE # 34
0079 900000      R     MOV     DPTR,#datetime
007C 120000      E     LCALL   ?C?PLDXDATA
007F E9                MOV     A,R1
0080 2404              ADD     A,#04H
0082 F9                MOV     R1,A
0083 EA                MOV     A,R2
0084 3400              ADDC    A,#00H
0086 FA                MOV     R2,A
0087 120000      E     LCALL   ?C?CLDPTR
008A FF                MOV     R7,A
008B 900000      R     MOV     DPTR,#header+0AH
008E EF                MOV     A,R7
008F F0                MOVX    @DPTR,A
                                           ; SOURCE LINE # 35
0090 900000      R     MOV     DPTR,#datetime
0093 120000      E     LCALL   ?C?PLDXDATA
0096 E9                MOV     A,R1
0097 2407              ADD     A,#07H
0099 F9                MOV     R1,A
009A EA                MOV     A,R2
009B 3400              ADDC    A,#00H
009D FA                MOV     R2,A
009E 120000      E     LCALL   ?C?CLDPTR
00A1 FF                MOV     R7,A
00A2 900000      R     MOV     DPTR,#header+0BH
00A5 EF                MOV     A,R7
00A6 F0                MOVX    @DPTR,A
                                           ; SOURCE LINE # 36
00A7 900000      R     MOV     DPTR,#datetime
00AA 120000      E     LCALL   ?C?PLDXDATA
00AD E9                MOV     A,R1
00AE 2408              ADD     A,#08H
00B0 F9                MOV     R1,A
00B1 EA                MOV     A,R2
00B2 3400              ADDC    A,#00H
00B4 FA                MOV     R2,A
00B5 120000      E     LCALL   ?C?ILDPTR
00B8 FF                MOV     R7,A
00B9 AEF0              MOV     R6,B
C51 COMPILER V9.51   INTERFACE                                                             04/29/2014 22:13:13 PAGE 5   

00BB 900000      R     MOV     DPTR,#header+02H
00BE EE                MOV     A,R6
00BF F0                MOVX    @DPTR,A
00C0 A3                INC     DPTR
00C1 EF                MOV     A,R7
00C2 F0                MOVX    @DPTR,A
                                           ; SOURCE LINE # 38
00C3 7B01              MOV     R3,#01H
00C5 7A00        R     MOV     R2,#HIGH header
00C7 7900        R     MOV     R1,#LOW header
00C9 C003              PUSH    AR3
00CB C002              PUSH    AR2
00CD C001              PUSH    AR1
00CF 900000      E     MOV     DPTR,#TailPtr
00D2 120000      E     LCALL   ?C?PLDXDATA
00D5 900000      E     MOV     DPTR,#?_Em_EEPROM_Write?BYTE+03H
00D8 120000      E     LCALL   ?C?PSTXDATA
00DB 900000      R     MOV     DPTR,#header_size
00DE E0                MOVX    A,@DPTR
00DF FF                MOV     R7,A
00E0 7E00              MOV     R6,#00H
00E2 900000      E     MOV     DPTR,#?_Em_EEPROM_Write?BYTE+06H
00E5 EE                MOV     A,R6
00E6 F0                MOVX    @DPTR,A
00E7 A3                INC     DPTR
00E8 EF                MOV     A,R7
00E9 F0                MOVX    @DPTR,A
00EA D001              POP     AR1
00EC D002              POP     AR2
00EE D003              POP     AR3
00F0 120000      E     LCALL   _Em_EEPROM_Write
                                           ; SOURCE LINE # 39
00F3 900000      R     MOV     DPTR,#header_size
00F6 E0                MOVX    A,@DPTR
00F7 FF                MOV     R7,A
00F8 7E00              MOV     R6,#00H
00FA 900000      E     MOV     DPTR,#TailPtr+01H
00FD EE                MOV     A,R6
00FE 8FF0              MOV     B,R7
0100 120000      E     LCALL   ?C?IILDX
                                           ; SOURCE LINE # 41
0103 120000      E     LCALL   StopCollection_IRQ_Start
                                           ; SOURCE LINE # 42
0106 120000      E     LCALL   StartCollection_IRQ_Stop
                                           ; SOURCE LINE # 43
0109 120000      E     LCALL   TakeSample_IRQ_Start
                                           ; SOURCE LINE # 46
010C         ?C0002:
010C 22                RET     
             ; FUNCTION StartCollection_ISR (END)

             ; FUNCTION StopCollection_ISR (BEGIN)
                                           ; SOURCE LINE # 48
                                           ; SOURCE LINE # 50
0000 120000      E     LCALL   StartCollection_IRQ_Start
                                           ; SOURCE LINE # 51
0003 120000      E     LCALL   StopCollection_IRQ_Stop
                                           ; SOURCE LINE # 52
0006 120000      E     LCALL   TakeSample_IRQ_Stop
                                           ; SOURCE LINE # 55
0009         ?C0003:
0009 22                RET     
C51 COMPILER V9.51   INTERFACE                                                             04/29/2014 22:13:13 PAGE 6   

             ; FUNCTION StopCollection_ISR (END)



MODULE INFORMATION:   STATIC OVERLAYABLE
   CODE SIZE        =    280    ----
   CONSTANT SIZE    =   ----    ----
   XDATA SIZE       =     16    ----
   PDATA SIZE       =   ----    ----
   DATA SIZE        =   ----    ----
   IDATA SIZE       =   ----    ----
   BIT SIZE         =   ----    ----
   EDATA SIZE       =   ----    ----
   HDATA SIZE       =   ----    ----
   XDATA CONST SIZE =   ----    ----
   FAR CONST SIZE   =   ----    ----
END OF MODULE INFORMATION.


C51 COMPILATION COMPLETE.  0 WARNING(S),  0 ERROR(S)
