C51 COMPILER V9.51   CHARLCD_1                                                             02/27/2014 19:08:28 PAGE 1   


C51 COMPILER V9.51, COMPILATION OF MODULE CHARLCD_1
OBJECT MODULE PLACED IN .\DP8051_Keil_951\Debug\CharLCD_1.obj
COMPILER INVOKED BY: C:\Program Files (x86)\Cypress\PSoC Creator\3.0\PSoC Creator\import\keil\pk51\9.51\C51\BIN\c51.exe 
                    -.\Generated_Source\PSoC3\CharLCD_1.c NOIV LARGE MODDP2 OMF2 VB(1) PR(.\DP8051_Keil_951\Debug\CharLCD_1.lst) CD DB NOIP O
                    -T(3,SPEED) INCDIR(.,.\Generated_Source\PSoC3) OJ(.\DP8051_Keil_951\Debug\CharLCD_1.obj)

line level    source

   1          /*******************************************************************************
   2          * File Name: CharLCD_1.c
   3          * Version 1.90
   4          *
   5          * Description:
   6          *  This file provides source code for the Character LCD component's API.
   7          *
   8          * Note:
   9          *
  10          ********************************************************************************
  11          * Copyright 2008-2012, Cypress Semiconductor Corporation.  All rights reserved.
  12          * You may use this file only in accordance with the license, terms, conditions,
  13          * disclaimers, and limitations in the end user license agreement accompanying
  14          * the software package with which this file was provided.
  15          *******************************************************************************/
  16          
  17          #include "CyLib.h"
  18          #include "CharLCD_1.h"
  19          
  20          
  21          static void CharLCD_1_WrDatNib(uint8 nibble) ;
  22          static void CharLCD_1_WrCntrlNib(uint8 nibble) ;
  23          
  24          /* Stores the state of conponent. Indicates wherewer component is 
  25          * in enable state or not.
  26          */
  27          uint8 CharLCD_1_enableState = 0u;
  28          
  29          uint8 CharLCD_1_initVar = 0u;
  30          
  31          
  32          /*******************************************************************************
  33          * Function Name: CharLCD_1_Init
  34          ********************************************************************************
  35          *
  36          * Summary:
  37          *  Perform initialization required for components normal work.
  38          *  This function initializes the LCD hardware module as follows:
  39          *        Enable 4-bit interface
  40          *        Clear the display
  41          *        Enable auto cursor increment
  42          *        Resets the cursor to start position
  43          *  Also loads custom character set to LCD if it was defined in the customizer.
  44          *
  45          * Parameters:
  46          *  None.
  47          *
  48          * Return:
  49          *  None.
  50          *
  51          * Reentrant:
  52          *  No.
  53          *
C51 COMPILER V9.51   CHARLCD_1                                                             02/27/2014 19:08:28 PAGE 2   

  54          *******************************************************************************/
  55          void CharLCD_1_Init(void) 
  56          {
  57   1          /* INIT CODE */
  58   1          CyDelay(40u);                                                        /* Delay 40 ms */
  59   1          CharLCD_1_WrCntrlNib(CharLCD_1_DISPLAY_8_BIT_INIT);    /* Selects 8-bit mode */
  60   1          CyDelay(5u);                                                         /* Delay 5 ms */
  61   1          CharLCD_1_WrCntrlNib(CharLCD_1_DISPLAY_8_BIT_INIT);    /* Selects 8-bit mode */
  62   1          CyDelay(15u);                                                        /* Delay 15 ms */
  63   1          CharLCD_1_WrCntrlNib(CharLCD_1_DISPLAY_8_BIT_INIT);    /* Selects 8-bit mode */
  64   1          CyDelay(1u);                                                         /* Delay 1 ms */
  65   1          CharLCD_1_WrCntrlNib(CharLCD_1_DISPLAY_4_BIT_INIT);    /* Selects 4-bit mode */
  66   1          CyDelay(5u);                                                         /* Delay 5 ms */
  67   1      
  68   1          CharLCD_1_WriteControl(CharLCD_1_CURSOR_AUTO_INCR_ON);    /* Incr Cursor After Writes */
  69   1          CharLCD_1_WriteControl(CharLCD_1_DISPLAY_CURSOR_ON);      /* Turn Display, Cursor ON */
  70   1          CharLCD_1_WriteControl(CharLCD_1_DISPLAY_2_LINES_5x10);   /* 2 Lines by 5x10 Characters */
  71   1          CharLCD_1_WriteControl(CharLCD_1_DISPLAY_CURSOR_OFF);     /* Turn Display, Cursor OFF */
  72   1          CharLCD_1_WriteControl(CharLCD_1_CLEAR_DISPLAY);          /* Clear LCD Screen */
  73   1          CharLCD_1_WriteControl(CharLCD_1_DISPLAY_ON_CURSOR_OFF);  /* Turn Display ON, Cursor OFF */
  74   1          CharLCD_1_WriteControl(CharLCD_1_RESET_CURSOR_POSITION);  /* Set Cursor to 0,0 */
  75   1          CyDelay(5u);
  76   1      
  77   1          #if(CharLCD_1_CUSTOM_CHAR_SET != CharLCD_1_NONE)
                      CharLCD_1_LoadCustomFonts(CharLCD_1_customFonts);
                  #endif /* CharLCD_1_CUSTOM_CHAR_SET != CharLCD_1_NONE */
  80   1      }
  81          
  82          
  83          /*******************************************************************************
  84          * Function Name: CharLCD_1_Enable
  85          ********************************************************************************
  86          *
  87          * Summary:
  88          *  Turns on the display.
  89          *
  90          * Parameters:
  91          *  None.
  92          *
  93          * Return:
  94          *  None.
  95          *
  96          * Reentrant:
  97          *  No.
  98          *
  99          * Theory:
 100          *  This finction has no effect when it called first time as
 101          *  CharLCD_1_Init() turns on the LCD.
 102          *
 103          *******************************************************************************/
 104          void CharLCD_1_Enable(void) 
 105          {
 106   1          CharLCD_1_DisplayOn();
 107   1          CharLCD_1_enableState = 1u;
 108   1      }
 109          
 110          
 111          /*******************************************************************************
 112          * Function Name: CharLCD_1_Start
 113          ********************************************************************************
 114          *
 115          * Summary:
C51 COMPILER V9.51   CHARLCD_1                                                             02/27/2014 19:08:28 PAGE 3   

 116          *  Perform initialization required for components normal work.
 117          *  This function initializes the LCD hardware module as follows:
 118          *        Enable 4-bit interface
 119          *        Clear the display
 120          *        Enable auto cursor increment
 121          *        Resets the cursor to start position
 122          *  Also loads custom character set to LCD if it was defined in the customizer.
 123          *  If it was not the first call in this project then it just turns on the
 124          *  display
 125          *
 126          *
 127          * Parameters:
 128          *  CharLCD_1_initVar - global variable.
 129          *
 130          * Return:
 131          *  CharLCD_1_initVar - global variable.
 132          *
 133          * Reentrant:
 134          *  No.
 135          *
 136          *******************************************************************************/
 137          void CharLCD_1_Start(void) 
 138          {
 139   1          /* If not initialized then perform initialization */
 140   1          if(CharLCD_1_initVar == 0u)
 141   1          {
 142   2              CharLCD_1_Init();
 143   2              CharLCD_1_initVar = 1u;
 144   2          }
 145   1      
 146   1          /* Turn on the LCD */
 147   1          CharLCD_1_Enable();
 148   1      }
 149          
 150          
 151          /*******************************************************************************
 152          * Function Name: CharLCD_1_Stop
 153          ********************************************************************************
 154          *
 155          * Summary:
 156          *  Turns off the display of the LCD screen.
 157          *
 158          * Parameters:
 159          *  None.
 160          *
 161          * Return:
 162          *  None.
 163          *
 164          * Reentrant:
 165          *  No.
 166          *
 167          *******************************************************************************/
 168          void CharLCD_1_Stop(void) 
 169          {
 170   1          /* Calls LCD Off Macro */
 171   1          CharLCD_1_DisplayOff();
 172   1          CharLCD_1_enableState = 0u;
 173   1      }
 174          
 175          
 176          /*******************************************************************************
 177          *  Function Name: CharLCD_1_Position
C51 COMPILER V9.51   CHARLCD_1                                                             02/27/2014 19:08:28 PAGE 4   

 178          ********************************************************************************
 179          *
 180          * Summary:
 181          *  Moves active cursor location to a point specified by the input arguments
 182          *
 183          * Parameters:
 184          *  row:     Specific row of LCD module to be written
 185          *  column:  Column of LCD module to be written
 186          *
 187          * Return:
 188          *  None.
 189          *
 190          * Note:
 191          *  This only applies for LCD displays which use the 2X40 address mode.
 192          *  This results in Row 2 offset from row one by 0x28.
 193          *  When there are more than 2 rows, each row must be fewer than 20 characters.
 194          *
 195          *******************************************************************************/
 196          void CharLCD_1_Position(uint8 row, uint8 column) 
 197          {
 198   1          switch (row)
 199   1          {
 200   2              case (uint8)0:
 201   2                  CharLCD_1_WriteControl(CharLCD_1_ROW_0_START + column);
 202   2                  break;
 203   2              case (uint8) 1:
 204   2                  CharLCD_1_WriteControl(CharLCD_1_ROW_1_START + column);
 205   2                  break;
 206   2              case (uint8) 2:
 207   2                  CharLCD_1_WriteControl(CharLCD_1_ROW_2_START + column);
 208   2                  break;
 209   2              case (uint8) 3:
 210   2                  CharLCD_1_WriteControl(CharLCD_1_ROW_3_START + column);
 211   2                  break;
 212   2              default:
 213   2                  /* if default case is hit, invalid row argument was passed.*/
 214   2                  break;
 215   2          }
 216   1      }
 217          
 218          
 219          /*******************************************************************************
 220          * Function Name: CharLCD_1_PrintString
 221          ********************************************************************************
 222          *
 223          * Summary:
 224          *  Writes a zero terminated string to the LCD.
 225          *
 226          * Parameters:
 227          *  string:  pointer to head of char8 array to be written to the LCD module
 228          *
 229          * Return:
 230          *  None.
 231          *
 232          *******************************************************************************/
 233          void CharLCD_1_PrintString(char8 const string[]) 
 234          {
 235   1          uint8 indexU8 = 1u;
 236   1          char8 current = *string;
 237   1      
 238   1          /* Until null is reached, print next character */
 239   1          while((char8) '\0' != current)
C51 COMPILER V9.51   CHARLCD_1                                                             02/27/2014 19:08:28 PAGE 5   

 240   1          {
 241   2              CharLCD_1_WriteData((uint8)current);
 242   2              current = string[indexU8];
 243   2              indexU8++;
 244   2          }
 245   1      }
 246          
 247          
 248          /*******************************************************************************
 249          *  Function Name: CharLCD_1_PutChar
 250          ********************************************************************************
 251          *
 252          * Summary:
 253          *  Writes a single character to the current cursor position of the LCD module.
 254          *  Custom character names (_CUSTOM_0 through
 255          *  _CUSTOM_7) are acceptable as inputs.
 256          *
 257          * Parameters:
 258          *  character:  character to be written to the LCD
 259          *
 260          * Return:
 261          *  None.
 262          *
 263          *******************************************************************************/
 264          void CharLCD_1_PutChar(char8 character) 
 265          {
 266   1          CharLCD_1_WriteData((uint8)character);
 267   1      }
 268          
 269          
 270          /*******************************************************************************
 271          *  Function Name: CharLCD_1_WriteData
 272          ********************************************************************************
 273          *
 274          * Summary:
 275          *  Writes a data byte to the LCD module's Data Display RAM.
 276          *
 277          * Parameters:
 278          *  dByte:  byte to be written to LCD module.
 279          *
 280          * Return:
 281          *  None.
 282          *
 283          *******************************************************************************/
 284          void CharLCD_1_WriteData(uint8 dByte) 
 285          {
 286   1          uint8 nibble;
 287   1      
 288   1          CharLCD_1_IsReady();
 289   1          nibble = dByte >> CharLCD_1_NIBBLE_SHIFT;
 290   1      
 291   1          /* Write high nibble */
 292   1          CharLCD_1_WrDatNib(nibble);
 293   1      
 294   1          nibble = dByte & CharLCD_1_NIBBLE_MASK;
 295   1          /* Write low nibble */
 296   1          CharLCD_1_WrDatNib(nibble);
 297   1      }
 298          
 299          
 300          /*******************************************************************************
 301          *  Function Name: CharLCD_1_WriteControl
C51 COMPILER V9.51   CHARLCD_1                                                             02/27/2014 19:08:28 PAGE 6   

 302          ********************************************************************************
 303          *
 304          * Summary:
 305          *  Writes a command byte to the LCD module.
 306          *
 307          * Parameters:
 308          *  cByte:   byte to be written to LCD module.
 309          *
 310          * Return:
 311          *  None.
 312          *
 313          *******************************************************************************/
 314          void CharLCD_1_WriteControl(uint8 cByte) 
 315          {
 316   1          uint8 nibble;
 317   1      
 318   1          CharLCD_1_IsReady();
 319   1      
 320   1          nibble = cByte >> CharLCD_1_NIBBLE_SHIFT;
 321   1          
 322   1          /* WrCntrlNib(High Nibble) */
 323   1          CharLCD_1_WrCntrlNib(nibble);
 324   1          nibble = cByte & CharLCD_1_NIBBLE_MASK;
 325   1      
 326   1          /* WrCntrlNib(Low Nibble) */
 327   1          CharLCD_1_WrCntrlNib(nibble);
 328   1      }
 329          
 330          
 331          /*******************************************************************************
 332          * Function Name: CharLCD_1_IsReady
 333          ********************************************************************************
 334          *
 335          * Summary:
 336          *  Polls LCD until the ready bit is set.
 337          *
 338          * Parameters:
 339          *  None.
 340          *
 341          * Return:
 342          *  None.
 343          *
 344          * Note:
 345          *  Changes pins to High-Z.
 346          *
 347          *******************************************************************************/
 348          void CharLCD_1_IsReady(void) 
 349          {
 350   1          uint8 value;
 351   1      
 352   1          /* Clear the LCD port*/
 353   1          CharLCD_1_PORT_DR_REG &= ((uint8)(~CharLCD_1_PORT_MASK));
 354   1      
 355   1          /* PSoC4 has a bit different port/pin organization for setting Drive Modes than
 356   1          * PSoC3/5.
 357   1          */
 358   1          #if (CY_PSOC4)
                      
                      /* Mask off data pins to clear old values out */
                      value = CharLCD_1_PORT_PC_REG & ((uint32) (~ CharLCD_1_DM_DATA_MASK));
                      /* Load in high Z values for data pins, others unchanged */
                      CharLCD_1_PORT_PC_REG = value | CharLCD_1_HIGH_Z_DATA_DM;
C51 COMPILER V9.51   CHARLCD_1                                                             02/27/2014 19:08:28 PAGE 7   

              
                  #else
 366   1          
 367   1              /* Change Port to High-Z Status on data pins */
 368   1      
 369   1              /* Mask off data pins to clear old values out */
 370   1              value = CharLCD_1_PORT_DM0_REG & ((uint8)(~CharLCD_1_DATA_MASK));
 371   1              /* Load in high Z values for data pins, others unchanged */
 372   1              CharLCD_1_PORT_DM0_REG = value | (CharLCD_1_HIGH_Z_DM0 & CharLCD_1_DATA_MASK);
 373   1      
 374   1              /* Mask off data pins to clear old values out */
 375   1              value = CharLCD_1_PORT_DM1_REG & ((uint8)(~CharLCD_1_DATA_MASK));
 376   1              /* Load in high Z values for data pins, others unchanged */
 377   1              CharLCD_1_PORT_DM1_REG = value;
 378   1      
 379   1              /* Mask off data pins to clear old values out */
 380   1              value = CharLCD_1_PORT_DM2_REG & ((uint8)(~CharLCD_1_DATA_MASK));
 381   1              /* Load in high Z values for data pins, others unchanged */
 382   1              CharLCD_1_PORT_DM2_REG = value;
 383   1          
 384   1          #endif /* CY_PSOC4 */
 385   1          
 386   1          /* Make sure RS is low */
 387   1          CharLCD_1_PORT_DR_REG &= ((uint8)(~CharLCD_1_RS));
 388   1      
 389   1          /* Set R/W high to read */
 390   1          CharLCD_1_PORT_DR_REG |= CharLCD_1_RW;
 391   1      
 392   1          do
 393   1          {
 394   2              /* 40 ns delay required before rising Enable and 500ns between neighbour Enables */
 395   2              CyDelayUs(0u);
 396   2      
 397   2              /* Set E high */
 398   2              CharLCD_1_PORT_DR_REG |= CharLCD_1_E;
 399   2      
 400   2              /* 360 ns delay the setup time for data pins */
 401   2              CyDelayUs(1u);
 402   2      
 403   2              /* Get port state */
 404   2              value = CharLCD_1_PORT_PS_REG;
 405   2      
 406   2              /* Set enable low */
 407   2              CharLCD_1_PORT_DR_REG &= ((uint8)(~CharLCD_1_E));
 408   2      
 409   2              /* This gives a true delay between disably Enable bit and poling Ready bit */
 410   2              CyDelayUs(0u);
 411   2      
 412   2              /* Extract ready bit */
 413   2              value &= CharLCD_1_READY_BIT;
 414   2      
 415   2              /* Set E high as we in 4-bit interface we need extra oparation */
 416   2              CharLCD_1_PORT_DR_REG |= CharLCD_1_E;
 417   2      
 418   2              /* 360 ns delay the setup time for data pins */
 419   2              CyDelayUs(1u);
 420   2      
 421   2              /* Set enable low */
 422   2              CharLCD_1_PORT_DR_REG &= ((uint8)(~CharLCD_1_E));
 423   2      
 424   2              /* Repeat until bit 4 is not zero. */
 425   2      
C51 COMPILER V9.51   CHARLCD_1                                                             02/27/2014 19:08:28 PAGE 8   

 426   2          } while (value != 0u);
 427   1      
 428   1          /* Set R/W low to write */
 429   1          CharLCD_1_PORT_DR_REG &= ((uint8)(~CharLCD_1_RW));
 430   1      
 431   1          /* Clear the LCD port*/
 432   1          CharLCD_1_PORT_DR_REG &= ((uint8)(~CharLCD_1_PORT_MASK));
 433   1      
 434   1          #if (CY_PSOC4)
                      
                      /* Mask off data pins to clear old values out */
                      value = CharLCD_1_PORT_PC_REG & ((uint32)(~ CharLCD_1_DM_DATA_MASK));
                      /* Load in high Z values for data pins, others unchanged */
                      CharLCD_1_PORT_PC_REG = value | CharLCD_1_STRONG_DATA_DM;
              
                  #else
 442   1      
 443   1              /* Change Port to Output (Strong) on data pins */
 444   1              /* Mask off data pins to clear high z values out. Configure data pins 
 445   1              * to Strong Drive, others unchanged.
 446   1              */
 447   1              CharLCD_1_PORT_DM0_REG &= ((uint8)(~CharLCD_1_DATA_MASK));
 448   1              /* Mask off data pins to clear high z values out */
 449   1              value = CharLCD_1_PORT_DM1_REG & ((uint8)(~CharLCD_1_DATA_MASK));
 450   1              /* Configure data pins to Strong Drive, others unchanged */
 451   1              CharLCD_1_PORT_DM1_REG = value | (CharLCD_1_STRONG_DM1 & CharLCD_1_DATA_MASK);
 452   1      
 453   1              /* Mask off data pins to clear high z values out */
 454   1              value = CharLCD_1_PORT_DM2_REG & ((uint8)(~CharLCD_1_DATA_MASK));
 455   1              /* Configure data pins to Strong Drive, others unchanged */
 456   1              CharLCD_1_PORT_DM2_REG = value | (CharLCD_1_STRONG_DM2 & CharLCD_1_DATA_MASK);
 457   1          
 458   1          #endif /* CY_PSOC4 */
 459   1      }
 460          
 461          
 462          /*******************************************************************************
 463          *  Function Name: CharLCD_1_WrDatNib
 464          ********************************************************************************
 465          *
 466          * Summary:
 467          *  Writes a data nibble to the LCD module.
 468          *
 469          * Parameters:
 470          *  nibble:  byte containing nibble in least significant nibble to be written
 471          *           to LCD module.
 472          *
 473          * Return:
 474          *  None.
 475          *
 476          *******************************************************************************/
 477          static void CharLCD_1_WrDatNib(uint8 nibble) 
 478          {
 479   1          CharLCD_1_IsReady();
 480   1      
 481   1          /* RS shoul be low to select data register */
 482   1          CharLCD_1_PORT_DR_REG |= CharLCD_1_RS;
 483   1          /* Reset RW for write operation */
 484   1          CharLCD_1_PORT_DR_REG &= ((uint8)(~CharLCD_1_RW));
 485   1      
 486   1          /* Two following lines of code will provide us with 40ns delay */
 487   1          /* Clear data pins */
C51 COMPILER V9.51   CHARLCD_1                                                             02/27/2014 19:08:28 PAGE 9   

 488   1          CharLCD_1_PORT_DR_REG &= ((uint8)(~CharLCD_1_DATA_MASK));
 489   1      
 490   1          /* Write in data, bring E high*/
 491   1          #if(0u != CharLCD_1_PORT_SHIFT) /* MISRA forbids shift by 0 so need to handle that */
                      CharLCD_1_PORT_DR_REG |= 
                          (CharLCD_1_E | ((uint8)(((uint8) nibble) << CharLCD_1_PORT_SHIFT)));
                  #else
 495   1              CharLCD_1_PORT_DR_REG |= (CharLCD_1_E | nibble);
 496   1          #endif /* (0u != CharLCD_1_PORT_SHIFT) */
 497   1      
 498   1          /* Minimum of 230 ns delay */
 499   1          CyDelayUs(1u);
 500   1      
 501   1          CharLCD_1_PORT_DR_REG &= ((uint8)(~CharLCD_1_E));
 502   1      }
 503          
 504          
 505          /*******************************************************************************
 506          *  Function Name: CharLCD_1_WrCntrlNib
 507          ********************************************************************************
 508          *
 509          * Summary:
 510          *  Writes a control nibble to the LCD module.
 511          *
 512          * Parameters:
 513          *  nibble:  byte containing nibble in least significant nibble to be written
 514          *           to LCD module.
 515          *
 516          * Return:
 517          *  None.
 518          *
 519          *******************************************************************************/
 520          static void CharLCD_1_WrCntrlNib(uint8 nibble) 
 521          {
 522   1          /* RS and RW shoul be low to select instruction register and  write operation respectively */
 523   1          CharLCD_1_PORT_DR_REG &= ((uint8)(~(CharLCD_1_RS | CharLCD_1_RW)));
 524   1      
 525   1          /* Two following lines of code will give provide ua with 40ns delay */
 526   1          /* Clear data pins */
 527   1          CharLCD_1_PORT_DR_REG &= ((uint8)(~CharLCD_1_DATA_MASK));
 528   1      
 529   1          /* Write control data and set enable signal */
 530   1          #if(0u != CharLCD_1_PORT_SHIFT) /* MISRA forbids shift by 0 so need to handle that */
                      CharLCD_1_PORT_DR_REG |= 
                          (CharLCD_1_E | ((uint8)(((uint8) nibble) << CharLCD_1_PORT_SHIFT)));
                  #else
 534   1              CharLCD_1_PORT_DR_REG |= (CharLCD_1_E | nibble);
 535   1          #endif /* (0u != CharLCD_1_PORT_SHIFT) */
 536   1      
 537   1          /* Minimum of 230 ns delay */
 538   1          CyDelayUs(1u);
 539   1      
 540   1          CharLCD_1_PORT_DR_REG &= ((uint8)(~CharLCD_1_E));
 541   1      }
 542          
 543          
 544          #if(CharLCD_1_CONVERSION_ROUTINES == 1u)
 545          
 546              /*******************************************************************************
 547              *  Function Name: CharLCD_1_PrintInt8
 548              ********************************************************************************
 549              *
C51 COMPILER V9.51   CHARLCD_1                                                             02/27/2014 19:08:28 PAGE 10  

 550              * Summary:
 551              *  Print a byte as two ASCII characters.
 552              *
 553              * Parameters:
 554              *  value:  The byte to be printed out as ASCII characters.
 555              *
 556              * Return:
 557              *  None.
 558              *
 559              *******************************************************************************/
 560              void CharLCD_1_PrintInt8(uint8 value) 
 561              {
 562   1              static char8 const CYCODE CharLCD_1_hex[16u] = "0123456789ABCDEF";
 563   1              
 564   1              CharLCD_1_PutChar((char8) CharLCD_1_hex[value >> CharLCD_1_BYTE_UPPER_NIBBLE_SHIFT]);
 565   1              CharLCD_1_PutChar((char8) CharLCD_1_hex[value & CharLCD_1_BYTE_LOWER_NIBBLE_MASK]);
 566   1          }
 567          
 568          
 569              /*******************************************************************************
 570              *  Function Name: CharLCD_1_PrintInt16
 571              ********************************************************************************
 572              *
 573              * Summary:
 574              *  Print a uint16 as four ASCII characters.
 575              *
 576              * Parameters:
 577              *  value:   The uint16 to be printed out as ASCII characters.
 578              *
 579              * Return:
 580              *  None.
 581              *
 582              *******************************************************************************/
 583              void CharLCD_1_PrintInt16(uint16 value) 
 584              {
 585   1              CharLCD_1_PrintInt8((uint8)(value >> CharLCD_1_U16_UPPER_BYTE_SHIFT));
 586   1              CharLCD_1_PrintInt8((uint8)(value & CharLCD_1_U16_LOWER_BYTE_MASK));
 587   1          }
 588          
 589          
 590              /*******************************************************************************
 591              *  Function Name: CharLCD_1_PrintNumber
 592              ********************************************************************************
 593              *
 594              * Summary:
 595              *  Print an uint32 value as a left-justified decimal value.
 596              *
 597              * Parameters:
 598              *  value:  The byte to be printed out as ASCII characters.
 599              *
 600              * Return:
 601              *  None.
 602              *
 603              *******************************************************************************/
 604              void CharLCD_1_PrintNumber(uint16 value) 
 605              {
 606   1      
 607   1              char8 number[CharLCD_1_NUMBER_OF_REMAINDERS];
 608   1              char8 temp[CharLCD_1_NUMBER_OF_REMAINDERS];
 609   1      
 610   1              uint8 digIndex = 0u;
 611   1              uint8 numDigits;
C51 COMPILER V9.51   CHARLCD_1                                                             02/27/2014 19:08:28 PAGE 11  

 612   1      
 613   1              /* Load these in reverse order */
 614   1              while(value >= CharLCD_1_TEN)
 615   1              {
 616   2                  temp[digIndex] = (value % CharLCD_1_TEN) + '0';
 617   2                  value /= CharLCD_1_TEN;
 618   2                  digIndex++;
 619   2              }
 620   1      
 621   1              temp[digIndex] = (value % CharLCD_1_TEN) + '0';
 622   1              numDigits = digIndex;
 623   1      
 624   1              /* While index is greater than or equal to zero copy number
 625   1              * from temporary array to number[].
 626   1              */
 627   1              while (digIndex != 0u)
 628   1              {
 629   2                  number[numDigits - digIndex] = temp[digIndex];
 630   2                  digIndex--;
 631   2              }
 632   1              
 633   1              /* Copy last digit */
 634   1              number[numDigits] = temp[0u];
 635   1      
 636   1              /* Null Termination */
 637   1              number[numDigits + 1u] = (char8) '\0';
 638   1      
 639   1              /* Print out number */
 640   1              CharLCD_1_PrintString(&number[0u]);
 641   1          }
 642          
 643          #endif /* CharLCD_1_CONVERSION_ROUTINES == 1u */
 644          
 645          
 646          /* [] END OF FILE */
C51 COMPILER V9.51   CHARLCD_1                                                             02/27/2014 19:08:28 PAGE 12  

ASSEMBLY LISTING OF GENERATED OBJECT CODE


             ; FUNCTION CharLCD_1_Init (BEGIN)
                                           ; SOURCE LINE # 55
                                           ; SOURCE LINE # 56
                                           ; SOURCE LINE # 58
0000 E4                CLR     A
0001 7F28              MOV     R7,#028H
0003 FE                MOV     R6,A
0004 FD                MOV     R5,A
0005 FC                MOV     R4,A
0006 120000      E     LCALL   _?CyDelay
                                           ; SOURCE LINE # 59
0009 7F03              MOV     R7,#03H
000B 120000      R     LCALL   _CharLCD_1_WrCntrlNib
                                           ; SOURCE LINE # 60
000E E4                CLR     A
000F 7F05              MOV     R7,#05H
0011 FE                MOV     R6,A
0012 FD                MOV     R5,A
0013 FC                MOV     R4,A
0014 120000      E     LCALL   _?CyDelay
                                           ; SOURCE LINE # 61
0017 7F03              MOV     R7,#03H
0019 120000      R     LCALL   _CharLCD_1_WrCntrlNib
                                           ; SOURCE LINE # 62
001C E4                CLR     A
001D 7F0F              MOV     R7,#0FH
001F FE                MOV     R6,A
0020 FD                MOV     R5,A
0021 FC                MOV     R4,A
0022 120000      E     LCALL   _?CyDelay
                                           ; SOURCE LINE # 63
0025 7F03              MOV     R7,#03H
0027 120000      R     LCALL   _CharLCD_1_WrCntrlNib
                                           ; SOURCE LINE # 64
002A E4                CLR     A
002B 7F01              MOV     R7,#01H
002D FE                MOV     R6,A
002E FD                MOV     R5,A
002F FC                MOV     R4,A
0030 120000      E     LCALL   _?CyDelay
                                           ; SOURCE LINE # 65
0033 7F02              MOV     R7,#02H
0035 120000      R     LCALL   _CharLCD_1_WrCntrlNib
                                           ; SOURCE LINE # 66
0038 E4                CLR     A
0039 7F05              MOV     R7,#05H
003B FE                MOV     R6,A
003C FD                MOV     R5,A
003D FC                MOV     R4,A
003E 120000      E     LCALL   _?CyDelay
                                           ; SOURCE LINE # 68
0041 7F06              MOV     R7,#06H
0043 120000      R     LCALL   _CharLCD_1_WriteControl
                                           ; SOURCE LINE # 69
0046 7F0E              MOV     R7,#0EH
0048 120000      R     LCALL   _CharLCD_1_WriteControl
                                           ; SOURCE LINE # 70
004B 7F2C              MOV     R7,#02CH
004D 120000      R     LCALL   _CharLCD_1_WriteControl
C51 COMPILER V9.51   CHARLCD_1                                                             02/27/2014 19:08:28 PAGE 13  

                                           ; SOURCE LINE # 71
0050 7F08              MOV     R7,#08H
0052 120000      R     LCALL   _CharLCD_1_WriteControl
                                           ; SOURCE LINE # 72
0055 7F01              MOV     R7,#01H
0057 120000      R     LCALL   _CharLCD_1_WriteControl
                                           ; SOURCE LINE # 73
005A 7F0C              MOV     R7,#0CH
005C 120000      R     LCALL   _CharLCD_1_WriteControl
                                           ; SOURCE LINE # 74
005F 7F03              MOV     R7,#03H
0061 120000      R     LCALL   _CharLCD_1_WriteControl
                                           ; SOURCE LINE # 75
0064 E4                CLR     A
0065 7F05              MOV     R7,#05H
0067 FE                MOV     R6,A
0068 FD                MOV     R5,A
0069 FC                MOV     R4,A
006A 120000      E     LCALL   _?CyDelay
                                           ; SOURCE LINE # 80
006D 22                RET     
             ; FUNCTION CharLCD_1_Init (END)

             ; FUNCTION CharLCD_1_Enable (BEGIN)
                                           ; SOURCE LINE # 104
                                           ; SOURCE LINE # 105
                                           ; SOURCE LINE # 106
0000 7F0C              MOV     R7,#0CH
0002 120000      R     LCALL   _CharLCD_1_WriteControl
                                           ; SOURCE LINE # 107
0005 900000      R     MOV     DPTR,#CharLCD_1_enableState
0008 7401              MOV     A,#01H
000A F0                MOVX    @DPTR,A
                                           ; SOURCE LINE # 108
000B 22                RET     
             ; FUNCTION CharLCD_1_Enable (END)

             ; FUNCTION CharLCD_1_Start (BEGIN)
                                           ; SOURCE LINE # 137
                                           ; SOURCE LINE # 138
                                           ; SOURCE LINE # 140
0000 900000      R     MOV     DPTR,#CharLCD_1_initVar
0003 E0                MOVX    A,@DPTR
0004 7009              JNZ     ?C0003
                                           ; SOURCE LINE # 141
                                           ; SOURCE LINE # 142
0006 120000      R     LCALL   CharLCD_1_Init
                                           ; SOURCE LINE # 143
0009 900000      R     MOV     DPTR,#CharLCD_1_initVar
000C 7401              MOV     A,#01H
000E F0                MOVX    @DPTR,A
                                           ; SOURCE LINE # 144
000F         ?C0003:
                                           ; SOURCE LINE # 147
000F 120000      R     LCALL   CharLCD_1_Enable
                                           ; SOURCE LINE # 148
0012 22                RET     
             ; FUNCTION CharLCD_1_Start (END)

             ; FUNCTION CharLCD_1_Stop (BEGIN)
                                           ; SOURCE LINE # 168
                                           ; SOURCE LINE # 169
C51 COMPILER V9.51   CHARLCD_1                                                             02/27/2014 19:08:28 PAGE 14  

                                           ; SOURCE LINE # 171
0000 7F08              MOV     R7,#08H
0002 120000      R     LCALL   _CharLCD_1_WriteControl
                                           ; SOURCE LINE # 172
0005 E4                CLR     A
0006 900000      R     MOV     DPTR,#CharLCD_1_enableState
0009 F0                MOVX    @DPTR,A
                                           ; SOURCE LINE # 173
000A 22                RET     
             ; FUNCTION CharLCD_1_Stop (END)

             ; FUNCTION _CharLCD_1_Position (BEGIN)
                                           ; SOURCE LINE # 196
0000 900000      R     MOV     DPTR,#row
0003 EF                MOV     A,R7
0004 F0                MOVX    @DPTR,A
0005 A3                INC     DPTR
0006 ED                MOV     A,R5
0007 F0                MOVX    @DPTR,A
                                           ; SOURCE LINE # 197
                                           ; SOURCE LINE # 198
0008 900000      R     MOV     DPTR,#row
000B E0                MOVX    A,@DPTR
000C 120000      E     LCALL   ?C?CCASE
000F 0000        R     DW      ?C0007
0011 00                DB      00H
0012 0000        R     DW      ?C0008
0014 01                DB      01H
0015 0000        R     DW      ?C0009
0017 02                DB      02H
0018 0000        R     DW      ?C0010
001A 03                DB      03H
001B 0000              DW      00H
001D 0000        R     DW      ?C0012
                                           ; SOURCE LINE # 199
                                           ; SOURCE LINE # 200
001F         ?C0007:
                                           ; SOURCE LINE # 201
001F 900000      R     MOV     DPTR,#column
0022 E0                MOVX    A,@DPTR
0023 2480              ADD     A,#080H
0025 FF                MOV     R7,A
0026 120000      R     LCALL   _CharLCD_1_WriteControl
                                           ; SOURCE LINE # 202
0029 22                RET     
                                           ; SOURCE LINE # 203
002A         ?C0008:
                                           ; SOURCE LINE # 204
002A 900000      R     MOV     DPTR,#column
002D E0                MOVX    A,@DPTR
002E 24C0              ADD     A,#0C0H
0030 FF                MOV     R7,A
0031 120000      R     LCALL   _CharLCD_1_WriteControl
                                           ; SOURCE LINE # 205
0034 22                RET     
                                           ; SOURCE LINE # 206
0035         ?C0009:
                                           ; SOURCE LINE # 207
0035 900000      R     MOV     DPTR,#column
0038 E0                MOVX    A,@DPTR
0039 2494              ADD     A,#094H
003B FF                MOV     R7,A
C51 COMPILER V9.51   CHARLCD_1                                                             02/27/2014 19:08:28 PAGE 15  

003C 120000      R     LCALL   _CharLCD_1_WriteControl
                                           ; SOURCE LINE # 208
003F 22                RET     
                                           ; SOURCE LINE # 209
0040         ?C0010:
                                           ; SOURCE LINE # 210
0040 900000      R     MOV     DPTR,#column
0043 E0                MOVX    A,@DPTR
0044 24D4              ADD     A,#0D4H
0046 FF                MOV     R7,A
0047 120000      R     LCALL   _CharLCD_1_WriteControl
                                           ; SOURCE LINE # 211
                                           ; SOURCE LINE # 212
                                           ; SOURCE LINE # 214
                                           ; SOURCE LINE # 215
                                           ; SOURCE LINE # 216
004A         ?C0012:
004A 22                RET     
             ; FUNCTION _CharLCD_1_Position (END)

             ; FUNCTION _CharLCD_1_PrintString (BEGIN)
                                           ; SOURCE LINE # 233
0000 900000      R     MOV     DPTR,#string
0003 EB                MOV     A,R3
0004 F0                MOVX    @DPTR,A
0005 A3                INC     DPTR
0006 EA                MOV     A,R2
0007 F0                MOVX    @DPTR,A
0008 A3                INC     DPTR
0009 E9                MOV     A,R1
000A F0                MOVX    @DPTR,A
                                           ; SOURCE LINE # 234
                                           ; SOURCE LINE # 235
000B A3                INC     DPTR
000C 7401              MOV     A,#01H
000E F0                MOVX    @DPTR,A
                                           ; SOURCE LINE # 236
000F 900000      R     MOV     DPTR,#string
0012 E0                MOVX    A,@DPTR
0013 FB                MOV     R3,A
0014 A3                INC     DPTR
0015 E0                MOVX    A,@DPTR
0016 FA                MOV     R2,A
0017 A3                INC     DPTR
0018 E0                MOVX    A,@DPTR
0019 F9                MOV     R1,A
001A 120000      E     LCALL   ?C?CLDPTR
001D 900000      R     MOV     DPTR,#current
0020 F0                MOVX    @DPTR,A
0021         ?C0013:
                                           ; SOURCE LINE # 239
0021 900000      R     MOV     DPTR,#current
0024 E0                MOVX    A,@DPTR
0025 6027              JZ      ?C0015
                                           ; SOURCE LINE # 240
                                           ; SOURCE LINE # 241
0027 FF                MOV     R7,A
0028 120000      R     LCALL   _CharLCD_1_WriteData
                                           ; SOURCE LINE # 242
002B 900000      R     MOV     DPTR,#string
002E E0                MOVX    A,@DPTR
002F FB                MOV     R3,A
C51 COMPILER V9.51   CHARLCD_1                                                             02/27/2014 19:08:28 PAGE 16  

0030 A3                INC     DPTR
0031 E0                MOVX    A,@DPTR
0032 FA                MOV     R2,A
0033 A3                INC     DPTR
0034 E0                MOVX    A,@DPTR
0035 F9                MOV     R1,A
0036 A3                INC     DPTR
0037 E0                MOVX    A,@DPTR
0038 FF                MOV     R7,A
0039 E9                MOV     A,R1
003A 2F                ADD     A,R7
003B F9                MOV     R1,A
003C E4                CLR     A
003D 3A                ADDC    A,R2
003E FA                MOV     R2,A
003F 120000      E     LCALL   ?C?CLDPTR
0042 900000      R     MOV     DPTR,#current
0045 F0                MOVX    @DPTR,A
                                           ; SOURCE LINE # 243
0046 900000      R     MOV     DPTR,#indexU8
0049 E0                MOVX    A,@DPTR
004A 04                INC     A
004B F0                MOVX    @DPTR,A
                                           ; SOURCE LINE # 244
004C 80D3              SJMP    ?C0013
                                           ; SOURCE LINE # 245
004E         ?C0015:
004E 22                RET     
             ; FUNCTION _CharLCD_1_PrintString (END)

             ; FUNCTION _CharLCD_1_PutChar (BEGIN)
                                           ; SOURCE LINE # 264
0000 900000      R     MOV     DPTR,#character
0003 EF                MOV     A,R7
0004 F0                MOVX    @DPTR,A
                                           ; SOURCE LINE # 265
                                           ; SOURCE LINE # 266
0005 E0                MOVX    A,@DPTR
0006 FF                MOV     R7,A
0007 120000      R     LCALL   _CharLCD_1_WriteData
                                           ; SOURCE LINE # 267
000A 22                RET     
             ; FUNCTION _CharLCD_1_PutChar (END)

             ; FUNCTION _CharLCD_1_WriteData (BEGIN)
                                           ; SOURCE LINE # 284
0000 900000      R     MOV     DPTR,#dByte
0003 EF                MOV     A,R7
0004 F0                MOVX    @DPTR,A
                                           ; SOURCE LINE # 285
                                           ; SOURCE LINE # 288
0005 120000      R     LCALL   CharLCD_1_IsReady
                                           ; SOURCE LINE # 289
0008 900000      R     MOV     DPTR,#dByte
000B E0                MOVX    A,@DPTR
000C FF                MOV     R7,A
000D C4                SWAP    A
000E 540F              ANL     A,#0FH
0010 A3                INC     DPTR
0011 F0                MOVX    @DPTR,A
                                           ; SOURCE LINE # 292
0012 E0                MOVX    A,@DPTR
C51 COMPILER V9.51   CHARLCD_1                                                             02/27/2014 19:08:28 PAGE 17  

0013 FF                MOV     R7,A
0014 120000      R     LCALL   _CharLCD_1_WrDatNib
                                           ; SOURCE LINE # 294
0017 900000      R     MOV     DPTR,#dByte
001A E0                MOVX    A,@DPTR
001B 540F              ANL     A,#0FH
001D A3                INC     DPTR
001E F0                MOVX    @DPTR,A
                                           ; SOURCE LINE # 296
001F E0                MOVX    A,@DPTR
0020 FF                MOV     R7,A
0021 120000      R     LCALL   _CharLCD_1_WrDatNib
                                           ; SOURCE LINE # 297
0024 22                RET     
             ; FUNCTION _CharLCD_1_WriteData (END)

             ; FUNCTION _CharLCD_1_WriteControl (BEGIN)
                                           ; SOURCE LINE # 314
0000 900000      R     MOV     DPTR,#cByte
0003 EF                MOV     A,R7
0004 F0                MOVX    @DPTR,A
                                           ; SOURCE LINE # 315
                                           ; SOURCE LINE # 318
0005 120000      R     LCALL   CharLCD_1_IsReady
                                           ; SOURCE LINE # 320
0008 900000      R     MOV     DPTR,#cByte
000B E0                MOVX    A,@DPTR
000C FF                MOV     R7,A
000D C4                SWAP    A
000E 540F              ANL     A,#0FH
0010 A3                INC     DPTR
0011 F0                MOVX    @DPTR,A
                                           ; SOURCE LINE # 323
0012 E0                MOVX    A,@DPTR
0013 FF                MOV     R7,A
0014 120000      R     LCALL   _CharLCD_1_WrCntrlNib
                                           ; SOURCE LINE # 324
0017 900000      R     MOV     DPTR,#cByte
001A E0                MOVX    A,@DPTR
001B 540F              ANL     A,#0FH
001D A3                INC     DPTR
001E F0                MOVX    @DPTR,A
                                           ; SOURCE LINE # 327
001F E0                MOVX    A,@DPTR
0020 FF                MOV     R7,A
0021 120000      R     LCALL   _CharLCD_1_WrCntrlNib
                                           ; SOURCE LINE # 328
0024 22                RET     
             ; FUNCTION _CharLCD_1_WriteControl (END)

             ; FUNCTION CharLCD_1_IsReady (BEGIN)
                                           ; SOURCE LINE # 348
                                           ; SOURCE LINE # 349
                                           ; SOURCE LINE # 353
0000 905120            MOV     DPTR,#05120H
0003 E0                MOVX    A,@DPTR
0004 5480              ANL     A,#080H
0006 F0                MOVX    @DPTR,A
                                           ; SOURCE LINE # 370
0007 905122            MOV     DPTR,#05122H
000A E0                MOVX    A,@DPTR
000B 54F0              ANL     A,#0F0H
C51 COMPILER V9.51   CHARLCD_1                                                             02/27/2014 19:08:28 PAGE 18  

000D 900000      R     MOV     DPTR,#value
0010 F0                MOVX    @DPTR,A
                                           ; SOURCE LINE # 372
0011 E0                MOVX    A,@DPTR
0012 440F              ORL     A,#0FH
0014 905122            MOV     DPTR,#05122H
0017 F0                MOVX    @DPTR,A
                                           ; SOURCE LINE # 375
0018 A3                INC     DPTR
0019 E0                MOVX    A,@DPTR
001A 54F0              ANL     A,#0F0H
001C 900000      R     MOV     DPTR,#value
001F F0                MOVX    @DPTR,A
                                           ; SOURCE LINE # 377
0020 E0                MOVX    A,@DPTR
0021 905123            MOV     DPTR,#05123H
0024 F0                MOVX    @DPTR,A
                                           ; SOURCE LINE # 380
0025 A3                INC     DPTR
0026 E0                MOVX    A,@DPTR
0027 54F0              ANL     A,#0F0H
0029 900000      R     MOV     DPTR,#value
002C F0                MOVX    @DPTR,A
                                           ; SOURCE LINE # 382
002D E0                MOVX    A,@DPTR
002E 905124            MOV     DPTR,#05124H
0031 F0                MOVX    @DPTR,A
                                           ; SOURCE LINE # 387
0032 905120            MOV     DPTR,#05120H
0035 E0                MOVX    A,@DPTR
0036 54DF              ANL     A,#0DFH
0038 F0                MOVX    @DPTR,A
                                           ; SOURCE LINE # 390
0039 E0                MOVX    A,@DPTR
003A 4440              ORL     A,#040H
003C F0                MOVX    @DPTR,A
003D         ?C0021:
                                           ; SOURCE LINE # 393
                                           ; SOURCE LINE # 395
003D E4                CLR     A
003E FF                MOV     R7,A
003F FE                MOV     R6,A
0040 120000      E     LCALL   _CyDelayUs
                                           ; SOURCE LINE # 398
0043 905120            MOV     DPTR,#05120H
0046 E0                MOVX    A,@DPTR
0047 4410              ORL     A,#010H
0049 F0                MOVX    @DPTR,A
                                           ; SOURCE LINE # 401
004A 7F01              MOV     R7,#01H
004C 7E00              MOV     R6,#00H
004E 120000      E     LCALL   _CyDelayUs
                                           ; SOURCE LINE # 404
0051 905121            MOV     DPTR,#05121H
0054 E0                MOVX    A,@DPTR
0055 900000      R     MOV     DPTR,#value
0058 F0                MOVX    @DPTR,A
                                           ; SOURCE LINE # 407
0059 905120            MOV     DPTR,#05120H
005C E0                MOVX    A,@DPTR
005D 54EF              ANL     A,#0EFH
005F F0                MOVX    @DPTR,A
C51 COMPILER V9.51   CHARLCD_1                                                             02/27/2014 19:08:28 PAGE 19  

                                           ; SOURCE LINE # 410
0060 E4                CLR     A
0061 FF                MOV     R7,A
0062 FE                MOV     R6,A
0063 120000      E     LCALL   _CyDelayUs
                                           ; SOURCE LINE # 413
0066 900000      R     MOV     DPTR,#value
0069 E0                MOVX    A,@DPTR
006A 5408              ANL     A,#08H
006C F0                MOVX    @DPTR,A
                                           ; SOURCE LINE # 416
006D 905120            MOV     DPTR,#05120H
0070 E0                MOVX    A,@DPTR
0071 4410              ORL     A,#010H
0073 F0                MOVX    @DPTR,A
                                           ; SOURCE LINE # 419
0074 7F01              MOV     R7,#01H
0076 7E00              MOV     R6,#00H
0078 120000      E     LCALL   _CyDelayUs
                                           ; SOURCE LINE # 422
007B 905120            MOV     DPTR,#05120H
007E E0                MOVX    A,@DPTR
007F 54EF              ANL     A,#0EFH
0081 F0                MOVX    @DPTR,A
                                           ; SOURCE LINE # 426
0082 900000      R     MOV     DPTR,#value
0085 E0                MOVX    A,@DPTR
0086 70B5              JNZ     ?C0021
                                           ; SOURCE LINE # 429
0088 905120            MOV     DPTR,#05120H
008B E0                MOVX    A,@DPTR
008C 54BF              ANL     A,#0BFH
008E F0                MOVX    @DPTR,A
                                           ; SOURCE LINE # 432
008F E0                MOVX    A,@DPTR
0090 5480              ANL     A,#080H
0092 F0                MOVX    @DPTR,A
                                           ; SOURCE LINE # 447
0093 905122            MOV     DPTR,#05122H
0096 E0                MOVX    A,@DPTR
0097 54F0              ANL     A,#0F0H
0099 F0                MOVX    @DPTR,A
                                           ; SOURCE LINE # 449
009A A3                INC     DPTR
009B E0                MOVX    A,@DPTR
009C 54F0              ANL     A,#0F0H
009E 900000      R     MOV     DPTR,#value
00A1 F0                MOVX    @DPTR,A
                                           ; SOURCE LINE # 451
00A2 E0                MOVX    A,@DPTR
00A3 440F              ORL     A,#0FH
00A5 905123            MOV     DPTR,#05123H
00A8 F0                MOVX    @DPTR,A
                                           ; SOURCE LINE # 454
00A9 A3                INC     DPTR
00AA E0                MOVX    A,@DPTR
00AB 54F0              ANL     A,#0F0H
00AD 900000      R     MOV     DPTR,#value
00B0 F0                MOVX    @DPTR,A
                                           ; SOURCE LINE # 456
00B1 E0                MOVX    A,@DPTR
00B2 440F              ORL     A,#0FH
C51 COMPILER V9.51   CHARLCD_1                                                             02/27/2014 19:08:28 PAGE 20  

00B4 905124            MOV     DPTR,#05124H
00B7 F0                MOVX    @DPTR,A
                                           ; SOURCE LINE # 459
00B8 22                RET     
             ; FUNCTION CharLCD_1_IsReady (END)

             ; FUNCTION _CharLCD_1_WrDatNib (BEGIN)
                                           ; SOURCE LINE # 477
0000 900000      R     MOV     DPTR,#nibble
0003 EF                MOV     A,R7
0004 F0                MOVX    @DPTR,A
                                           ; SOURCE LINE # 478
                                           ; SOURCE LINE # 479
0005 120000      R     LCALL   CharLCD_1_IsReady
                                           ; SOURCE LINE # 482
0008 905120            MOV     DPTR,#05120H
000B E0                MOVX    A,@DPTR
000C 4420              ORL     A,#020H
000E F0                MOVX    @DPTR,A
                                           ; SOURCE LINE # 484
000F E0                MOVX    A,@DPTR
0010 54BF              ANL     A,#0BFH
0012 F0                MOVX    @DPTR,A
                                           ; SOURCE LINE # 488
0013 E0                MOVX    A,@DPTR
0014 54F0              ANL     A,#0F0H
0016 F0                MOVX    @DPTR,A
                                           ; SOURCE LINE # 495
0017 C083              PUSH    DPH
0019 C082              PUSH    DPL
001B E0                MOVX    A,@DPTR
001C FF                MOV     R7,A
001D 900000      R     MOV     DPTR,#nibble
0020 E0                MOVX    A,@DPTR
0021 4410              ORL     A,#010H
0023 FE                MOV     R6,A
0024 EF                MOV     A,R7
0025 4E                ORL     A,R6
0026 D082              POP     DPL
0028 D083              POP     DPH
002A F0                MOVX    @DPTR,A
                                           ; SOURCE LINE # 499
002B 7F01              MOV     R7,#01H
002D 7E00              MOV     R6,#00H
002F 120000      E     LCALL   _CyDelayUs
                                           ; SOURCE LINE # 501
0032 905120            MOV     DPTR,#05120H
0035 E0                MOVX    A,@DPTR
0036 54EF              ANL     A,#0EFH
0038 F0                MOVX    @DPTR,A
                                           ; SOURCE LINE # 502
0039 22                RET     
             ; FUNCTION _CharLCD_1_WrDatNib (END)

             ; FUNCTION _CharLCD_1_WrCntrlNib (BEGIN)
                                           ; SOURCE LINE # 520
0000 900000      R     MOV     DPTR,#nibble
0003 EF                MOV     A,R7
0004 F0                MOVX    @DPTR,A
                                           ; SOURCE LINE # 521
                                           ; SOURCE LINE # 523
0005 905120            MOV     DPTR,#05120H
C51 COMPILER V9.51   CHARLCD_1                                                             02/27/2014 19:08:28 PAGE 21  

0008 E0                MOVX    A,@DPTR
0009 549F              ANL     A,#09FH
000B F0                MOVX    @DPTR,A
                                           ; SOURCE LINE # 527
000C E0                MOVX    A,@DPTR
000D 54F0              ANL     A,#0F0H
000F F0                MOVX    @DPTR,A
                                           ; SOURCE LINE # 534
0010 C083              PUSH    DPH
0012 C082              PUSH    DPL
0014 E0                MOVX    A,@DPTR
0015 FF                MOV     R7,A
0016 900000      R     MOV     DPTR,#nibble
0019 E0                MOVX    A,@DPTR
001A 4410              ORL     A,#010H
001C FE                MOV     R6,A
001D EF                MOV     A,R7
001E 4E                ORL     A,R6
001F D082              POP     DPL
0021 D083              POP     DPH
0023 F0                MOVX    @DPTR,A
                                           ; SOURCE LINE # 538
0024 7F01              MOV     R7,#01H
0026 7E00              MOV     R6,#00H
0028 120000      E     LCALL   _CyDelayUs
                                           ; SOURCE LINE # 540
002B 905120            MOV     DPTR,#05120H
002E E0                MOVX    A,@DPTR
002F 54EF              ANL     A,#0EFH
0031 F0                MOVX    @DPTR,A
                                           ; SOURCE LINE # 541
0032 22                RET     
             ; FUNCTION _CharLCD_1_WrCntrlNib (END)

             ; FUNCTION _CharLCD_1_PrintInt8 (BEGIN)
                                           ; SOURCE LINE # 560
0000 900000      R     MOV     DPTR,#value
0003 EF                MOV     A,R7
0004 F0                MOVX    @DPTR,A
                                           ; SOURCE LINE # 561
                                           ; SOURCE LINE # 564
0005 E0                MOVX    A,@DPTR
0006 FF                MOV     R7,A
0007 C4                SWAP    A
0008 540F              ANL     A,#0FH
000A 900000      R     MOV     DPTR,#CharLCD_1_hex
000D 93                MOVC    A,@A+DPTR
000E FF                MOV     R7,A
000F 120000      R     LCALL   _CharLCD_1_PutChar
                                           ; SOURCE LINE # 565
0012 900000      R     MOV     DPTR,#value
0015 E0                MOVX    A,@DPTR
0016 540F              ANL     A,#0FH
0018 900000      R     MOV     DPTR,#CharLCD_1_hex
001B 93                MOVC    A,@A+DPTR
001C FF                MOV     R7,A
001D 120000      R     LCALL   _CharLCD_1_PutChar
                                           ; SOURCE LINE # 566
0020 22                RET     
             ; FUNCTION _CharLCD_1_PrintInt8 (END)

             ; FUNCTION _CharLCD_1_PrintInt16 (BEGIN)
C51 COMPILER V9.51   CHARLCD_1                                                             02/27/2014 19:08:28 PAGE 22  

                                           ; SOURCE LINE # 583
0000 900000      R     MOV     DPTR,#value
0003 EE                MOV     A,R6
0004 F0                MOVX    @DPTR,A
0005 A3                INC     DPTR
0006 EF                MOV     A,R7
0007 F0                MOVX    @DPTR,A
                                           ; SOURCE LINE # 584
                                           ; SOURCE LINE # 585
0008 900000      R     MOV     DPTR,#value
000B E0                MOVX    A,@DPTR
000C FE                MOV     R6,A
000D A3                INC     DPTR
000E E0                MOVX    A,@DPTR
000F EE                MOV     A,R6
0010 FF                MOV     R7,A
0011 120000      R     LCALL   _CharLCD_1_PrintInt8
                                           ; SOURCE LINE # 586
0014 900000      R     MOV     DPTR,#value
0017 E0                MOVX    A,@DPTR
0018 A3                INC     DPTR
0019 E0                MOVX    A,@DPTR
001A FF                MOV     R7,A
001B 120000      R     LCALL   _CharLCD_1_PrintInt8
                                           ; SOURCE LINE # 587
001E 22                RET     
             ; FUNCTION _CharLCD_1_PrintInt16 (END)

             ; FUNCTION _CharLCD_1_PrintNumber (BEGIN)
                                           ; SOURCE LINE # 604
0000 900000      R     MOV     DPTR,#value
0003 EE                MOV     A,R6
0004 F0                MOVX    @DPTR,A
0005 A3                INC     DPTR
0006 EF                MOV     A,R7
0007 F0                MOVX    @DPTR,A
                                           ; SOURCE LINE # 605
                                           ; SOURCE LINE # 610
0008 E4                CLR     A
0009 900000      R     MOV     DPTR,#digIndex
000C F0                MOVX    @DPTR,A
000D         ?C0027:
                                           ; SOURCE LINE # 614
000D 900000      R     MOV     DPTR,#value
0010 E0                MOVX    A,@DPTR
0011 FE                MOV     R6,A
0012 A3                INC     DPTR
0013 E0                MOVX    A,@DPTR
0014 C3                CLR     C
0015 940A              SUBB    A,#0AH
0017 EE                MOV     A,R6
0018 9400              SUBB    A,#00H
001A 4040              JC      ?C0028
                                           ; SOURCE LINE # 615
                                           ; SOURCE LINE # 616
001C 900000      R     MOV     DPTR,#value
001F E0                MOVX    A,@DPTR
0020 A3                INC     DPTR
0021 E0                MOVX    A,@DPTR
0022 FF                MOV     R7,A
0023 7C00              MOV     R4,#00H
0025 7D0A              MOV     R5,#0AH
C51 COMPILER V9.51   CHARLCD_1                                                             02/27/2014 19:08:28 PAGE 23  

0027 120000      E     LCALL   ?C?UIDIV
002A ED                MOV     A,R5
002B 2430              ADD     A,#030H
002D FF                MOV     R7,A
002E 900000      R     MOV     DPTR,#digIndex
0031 E0                MOVX    A,@DPTR
0032 2400        R     ADD     A,#LOW temp
0034 F582              MOV     DPL,A
0036 E4                CLR     A
0037 3400        R     ADDC    A,#HIGH temp
0039 F583              MOV     DPH,A
003B EF                MOV     A,R7
003C F0                MOVX    @DPTR,A
                                           ; SOURCE LINE # 617
003D 900000      R     MOV     DPTR,#value
0040 E0                MOVX    A,@DPTR
0041 FE                MOV     R6,A
0042 A3                INC     DPTR
0043 E0                MOVX    A,@DPTR
0044 FF                MOV     R7,A
0045 7C00              MOV     R4,#00H
0047 7D0A              MOV     R5,#0AH
0049 120000      E     LCALL   ?C?UIDIV
004C 900000      R     MOV     DPTR,#value
004F EE                MOV     A,R6
0050 F0                MOVX    @DPTR,A
0051 A3                INC     DPTR
0052 EF                MOV     A,R7
0053 F0                MOVX    @DPTR,A
                                           ; SOURCE LINE # 618
0054 900000      R     MOV     DPTR,#digIndex
0057 E0                MOVX    A,@DPTR
0058 04                INC     A
0059 F0                MOVX    @DPTR,A
                                           ; SOURCE LINE # 619
005A 80B1              SJMP    ?C0027
005C         ?C0028:
                                           ; SOURCE LINE # 621
005C 900000      R     MOV     DPTR,#value
005F E0                MOVX    A,@DPTR
0060 FE                MOV     R6,A
0061 A3                INC     DPTR
0062 E0                MOVX    A,@DPTR
0063 FF                MOV     R7,A
0064 7C00              MOV     R4,#00H
0066 7D0A              MOV     R5,#0AH
0068 120000      E     LCALL   ?C?UIDIV
006B ED                MOV     A,R5
006C 2430              ADD     A,#030H
006E FF                MOV     R7,A
006F 900000      R     MOV     DPTR,#digIndex
0072 E0                MOVX    A,@DPTR
0073 2400        R     ADD     A,#LOW temp
0075 F582              MOV     DPL,A
0077 E4                CLR     A
0078 3400        R     ADDC    A,#HIGH temp
007A F583              MOV     DPH,A
007C EF                MOV     A,R7
007D F0                MOVX    @DPTR,A
                                           ; SOURCE LINE # 622
007E 900000      R     MOV     DPTR,#digIndex
0081 E0                MOVX    A,@DPTR
C51 COMPILER V9.51   CHARLCD_1                                                             02/27/2014 19:08:28 PAGE 24  

0082 A3                INC     DPTR
0083 F0                MOVX    @DPTR,A
0084         ?C0029:
                                           ; SOURCE LINE # 627
0084 900000      R     MOV     DPTR,#digIndex
0087 E0                MOVX    A,@DPTR
0088 602D              JZ      ?C0030
                                           ; SOURCE LINE # 628
                                           ; SOURCE LINE # 629
008A 2400        R     ADD     A,#LOW temp
008C F582              MOV     DPL,A
008E E4                CLR     A
008F 3400        R     ADDC    A,#HIGH temp
0091 F583              MOV     DPH,A
0093 E0                MOVX    A,@DPTR
0094 FF                MOV     R7,A
0095 900000      R     MOV     DPTR,#digIndex
0098 E0                MOVX    A,@DPTR
0099 FD                MOV     R5,A
009A A3                INC     DPTR
009B E0                MOVX    A,@DPTR
009C C3                CLR     C
009D 9D                SUBB    A,R5
009E FD                MOV     R5,A
009F E4                CLR     A
00A0 9400              SUBB    A,#00H
00A2 FC                MOV     R4,A
00A3 7400        R     MOV     A,#LOW number
00A5 2D                ADD     A,R5
00A6 F582              MOV     DPL,A
00A8 7400        R     MOV     A,#HIGH number
00AA 3C                ADDC    A,R4
00AB F583              MOV     DPH,A
00AD EF                MOV     A,R7
00AE F0                MOVX    @DPTR,A
                                           ; SOURCE LINE # 630
00AF 900000      R     MOV     DPTR,#digIndex
00B2 E0                MOVX    A,@DPTR
00B3 14                DEC     A
00B4 F0                MOVX    @DPTR,A
                                           ; SOURCE LINE # 631
00B5 80CD              SJMP    ?C0029
00B7         ?C0030:
                                           ; SOURCE LINE # 634
00B7 900000      R     MOV     DPTR,#temp
00BA E0                MOVX    A,@DPTR
00BB FF                MOV     R7,A
00BC 900000      R     MOV     DPTR,#numDigits
00BF E0                MOVX    A,@DPTR
00C0 2400        R     ADD     A,#LOW number
00C2 F582              MOV     DPL,A
00C4 E4                CLR     A
00C5 3400        R     ADDC    A,#HIGH number
00C7 F583              MOV     DPH,A
00C9 EF                MOV     A,R7
00CA F0                MOVX    @DPTR,A
                                           ; SOURCE LINE # 637
00CB 900000      R     MOV     DPTR,#numDigits
00CE E0                MOVX    A,@DPTR
00CF 2400        R     ADD     A,#LOW number+01H
00D1 F582              MOV     DPL,A
00D3 E4                CLR     A
C51 COMPILER V9.51   CHARLCD_1                                                             02/27/2014 19:08:28 PAGE 25  

00D4 3400        R     ADDC    A,#HIGH number+01H
00D6 F583              MOV     DPH,A
00D8 E4                CLR     A
00D9 F0                MOVX    @DPTR,A
                                           ; SOURCE LINE # 640
00DA 7B01              MOV     R3,#01H
00DC 7A00        R     MOV     R2,#HIGH number
00DE 7900        R     MOV     R1,#LOW number
00E0 120000      R     LCALL   _CharLCD_1_PrintString
                                           ; SOURCE LINE # 641
00E3 22                RET     
             ; FUNCTION _CharLCD_1_PrintNumber (END)



MODULE INFORMATION:   STATIC OVERLAYABLE
   CODE SIZE        =    977    ----
   CONSTANT SIZE    =     16    ----
   XDATA SIZE       =      2      32
   PDATA SIZE       =   ----    ----
   DATA SIZE        =   ----    ----
   IDATA SIZE       =   ----    ----
   BIT SIZE         =   ----    ----
   EDATA SIZE       =   ----    ----
   HDATA SIZE       =   ----    ----
   XDATA CONST SIZE =   ----    ----
   FAR CONST SIZE   =   ----    ----
END OF MODULE INFORMATION.


C51 COMPILATION COMPLETE.  0 WARNING(S),  0 ERROR(S)
