C51 COMPILER V9.51   RTC_1_INT                                                             05/01/2014 19:52:20 PAGE 1   


C51 COMPILER V9.51, COMPILATION OF MODULE RTC_1_INT
OBJECT MODULE PLACED IN .\DP8051\DP8051_Keil_951\Debug\RTC_1_INT.obj
COMPILER INVOKED BY: C:\Program Files (x86)\Cypress\PSoC Creator\3.0\PSoC Creator\import\keil\pk51\9.51\C51\BIN\c51.exe 
                    -.\Generated_Source\PSoC3\RTC_1_INT.c NOIV LARGE MODDP2 OMF2 VB(1) PR(.\DP8051\DP8051_Keil_951\Debug\RTC_1_INT.lst) CD DB
                    - NOIP OT(0,SIZE) DF(DEBUG) INCDIR(.,.\Generated_Source\PSoC3) OJ(.\DP8051\DP8051_Keil_951\Debug\RTC_1_INT.obj)

line level    source

   1          /*******************************************************************************
   2          * File Name: RTC_1_INT.c
   3          * Version 2.0
   4          *
   5          * Description:
   6          *  This file contains the Interrupt Service Routine (ISR) for the RTC component.
   7          *  This interrupt routine has entry pointes to overflow on time or date.
   8          *
   9          ********************************************************************************
  10          * Copyright 2008-2013, Cypress Semiconductor Corporation.  All rights reserved.
  11          * You may use this file only in accordance with the license, terms, conditions,
  12          * disclaimers, and limitations in the end user license agreement accompanying
  13          * the software package with which this file was provided.
  14          *******************************************************************************/
  15          
  16          #include "RTC_1.h"
  17          #include "CyLib.h"
  18          
  19          /* Function Prototypes */
  20          static void RTC_1_EverySecondHandler(void);
  21          static void RTC_1_EveryMinuteHandler(void);
  22          static void RTC_1_EveryHourHandler(void);
  23          static void RTC_1_EveryDayHandler(void);
  24          static void RTC_1_EveryWeekHandler(void);
  25          static void RTC_1_EveryMonthHandler(void);
  26          static void RTC_1_EveryYearHandler(void);
  27          
  28          
  29          /*******************************************************************************
  30          *  Place your includes, defines and code here
  31          *******************************************************************************/
  32          /* `#START RTC_ISR_DEFINITION` */
  33          
  34          #include "Sample_Handler.h"
  35          
  36          /* `#END` */
  37          
  38          
  39          /*******************************************************************************
  40          * Function Name:   RTC_1_EverySecondHandler
  41          ********************************************************************************
  42          *
  43          * Summary:
  44          *  This function is called every second.
  45          *
  46          * Parameters:
  47          *  None.
  48          *
  49          * Return:
  50          *  None.
  51          *
  52          *******************************************************************************/
  53          static void RTC_1_EverySecondHandler(void)
C51 COMPILER V9.51   RTC_1_INT                                                             05/01/2014 19:52:20 PAGE 2   

  54          {
  55   1          /*  Place your every second handler code here. */
  56   1          /* `#START EVERY_SECOND_HANDLER_CODE` */
  57   1          
  58   1          RTC_Int_Handler();
  59   1          
  60   1          /* `#END` */
  61   1      }
  62          
  63          
  64          /*******************************************************************************
  65          * Function Name:   RTC_1_EveryMinuteHandler
  66          ********************************************************************************
  67          *
  68          * Summary:
  69          *  This function is called every minute.
  70          *
  71          * Parameters:
  72          *  None.
  73          *
  74          * Return:
  75          *  None.
  76          *
  77          *******************************************************************************/
  78          static void RTC_1_EveryMinuteHandler(void)
  79          {
  80   1          /*  Place your every minute handler code here. */
  81   1          /* `#START EVERY_MINUTE_HANDLER_CODE` */
  82   1      
  83   1          RTC_Int_Handler();
  84   1          
  85   1          /* `#END` */
  86   1      }
  87          
  88          
  89          /*******************************************************************************
  90          * Function Name:   RTC_1_EveryHourHandler
  91          ********************************************************************************
  92          *
  93          * Summary:
  94          *  This function is called every hour.
  95          *
  96          * Parameters:
  97          *  None.
  98          *
  99          * Return:
 100          *  None.
 101          *
 102          *******************************************************************************/
 103          static void RTC_1_EveryHourHandler(void)
 104          {
 105   1          /*  Place your every hour handler code here. */
 106   1          /* `#START EVERY_HOUR_HANDLER_CODE` */
 107   1      
 108   1          RTC_Int_Handler();
 109   1          
 110   1          /* `#END` */
 111   1      }
 112          
 113          
 114          /*******************************************************************************
 115          * Function Name:   RTC_1_EveryDayHandler
C51 COMPILER V9.51   RTC_1_INT                                                             05/01/2014 19:52:20 PAGE 3   

 116          ********************************************************************************
 117          *
 118          * Summary:
 119          *  This function is called every day.
 120          *
 121          * Parameters:
 122          *  None.
 123          *
 124          * Return:
 125          *  None.
 126          *
 127          *******************************************************************************/
 128          static void RTC_1_EveryDayHandler(void)
 129          {
 130   1          /*  Place your everyday handler code here. */
 131   1          /* `#START EVERY_DAY_HANDLER_CODE` */
 132   1      
 133   1          RTC_Int_Handler();
 134   1          
 135   1          /* `#END` */
 136   1      }
 137          
 138          
 139          /*******************************************************************************
 140          * Function Name:   RTC_1_EveryWeekHandler
 141          ********************************************************************************
 142          *
 143          * Summary:
 144          *  This function is called every week.
 145          *
 146          * Parameters:
 147          *  None.
 148          *
 149          * Return:
 150          *  None.
 151          *
 152          *******************************************************************************/
 153          static void RTC_1_EveryWeekHandler(void)
 154          {
 155   1          /*  Place your every week handler code here. */
 156   1          /* `#START EVERY_WEEK_HANDLER_CODE` */
 157   1      
 158   1          RTC_Int_Handler();
 159   1          
 160   1          /* `#END` */
 161   1      }
 162          
 163          
 164          /*******************************************************************************
 165          * Function Name:   RTC_1_EveryMonthHandler
 166          ********************************************************************************
 167          *
 168          * Summary:
 169          *  This function is called every month.
 170          *
 171          * Parameters:
 172          *  None.
 173          *
 174          * Return:
 175          *  None.
 176          *
 177          *******************************************************************************/
C51 COMPILER V9.51   RTC_1_INT                                                             05/01/2014 19:52:20 PAGE 4   

 178          static void RTC_1_EveryMonthHandler(void)
 179          {
 180   1          /*  Place your every month handler code here. */
 181   1          /* `#START EVERY_MONTH_HANDLER_CODE` */
 182   1      
 183   1          RTC_Int_Handler();
 184   1          
 185   1          /* `#END` */
 186   1      }
 187          
 188          
 189          /*******************************************************************************
 190          * Function Name:   RTC_1_EveryYearHandler
 191          ********************************************************************************
 192          *
 193          * Summary:
 194          *  This function is called every year.
 195          *
 196          * Parameters:
 197          *  None.
 198          *
 199          * Return:
 200          *  None.
 201          *
 202          *******************************************************************************/
 203          static void RTC_1_EveryYearHandler(void)
 204          {
 205   1          /*  Place your every year handler code here. */
 206   1          /* `#START EVERY_YEAR_HANDLER_CODE` */
 207   1      
 208   1          RTC_Int_Handler();
 209   1          
 210   1          /* `#END` */
 211   1      }
 212          
 213          
 214          /*******************************************************************************
 215          * Function Name: RTC_1_ISR
 216          ********************************************************************************
 217          *
 218          * Summary:
 219          *  This ISR is executed on 1PPS (one pulse per second) event.
 220          *  Global interrupt must be enabled to invoke this ISR.
 221          *  This interrupt trigs every second.
 222          *
 223          * Parameters:
 224          *  None.
 225          *
 226          * Return:
 227          *  None.
 228          *
 229          * Global variables:
 230          * RTC_1_currentTimeDate, RTC_1_dstTimeDateStart,
 231          *  RTC_1_dstTimeDateStop, RTC_1_dstTimeDateStart,
 232          *  RTC_1_alarmCfgTimeDate, RTC_1_statusDateTime,
 233          *  RTC_1_dstStartStatus, RTC_1_dstStartStatus,
 234          *  RTC_1_dstStopStatus, RTC_1_alarmCurStatus: global
 235          *  variables are used for the time/date, DST and alarm update procedure.
 236          *
 237          *  RTC_1_dstTimeDateStart and RTC_1_currentTimeDate:
 238          *  are modified with the updated values.
 239          *
C51 COMPILER V9.51   RTC_1_INT                                                             05/01/2014 19:52:20 PAGE 5   

 240          *  RTC_1_statusDateTime, RTC_1_dstStartStatus,
 241          *  RTC_1_dstStartStatus, RTC_1_dstStopStatus,
 242          *  RTC_1_alarmCurStatus: global variables could be modified while
 243          *  current time/date is updated.
 244          *
 245          * Side Effects:
 246          *  Clears all interrupt status bits (react_int, limact_int, onepps_int, ctw_int,
 247          *  and  ftw_int) in Power Manager Interrupt Status Register. If an interrupt
 248          *  gets generated at the same time as a clear, the bit will remain set (which
 249          *  causes another interrupt).
 250          *
 251          *******************************************************************************/
 252          CY_ISR(RTC_1_ISR)
 253          {
 254   1          uint8 RTC_1_tmp;
 255   1      
 256   1          /* Clear OPPS interrupt status flag */
 257   1          (void) CyPmReadStatus(CY_PM_ONEPPS_INT);
 258   1      
 259   1          /* Increment seconds counter */
 260   1          RTC_1_currentTimeDate.Sec++;
 261   1      
 262   1          /* Check if minute elapsed */
 263   1          if(RTC_1_currentTimeDate.Sec > RTC_1_MINUTE_ELAPSED)
 264   1          {
 265   2              /* Inc Min */
 266   2              RTC_1_currentTimeDate.Min++;
 267   2      
 268   2              /* Clear Sec */
 269   2              RTC_1_currentTimeDate.Sec = 0u;
 270   2      
 271   2              if(RTC_1_currentTimeDate.Min > RTC_1_HOUR_ELAPSED)
 272   2              {
 273   3                  /* Inc HOUR */
 274   3                  RTC_1_currentTimeDate.Hour++;
 275   3      
 276   3                  /* Clear Min */
 277   3                  RTC_1_currentTimeDate.Min = 0u;
 278   3      
 279   3                  /* Day roll over */
 280   3                  if(RTC_1_currentTimeDate.Hour > RTC_1_DAY_ELAPSED)
 281   3                  {
 282   4                      /* Inc DayOfMonth */
 283   4                      RTC_1_currentTimeDate.DayOfMonth++;
 284   4      
 285   4                      /* Clear Hour */
 286   4                      RTC_1_currentTimeDate.Hour = 0u;
 287   4      
 288   4                      /* Inc DayOfYear */
 289   4                      RTC_1_currentTimeDate.DayOfYear++;
 290   4      
 291   4                      /* Inc DayOfWeek */
 292   4                      RTC_1_currentTimeDate.DayOfWeek++;
 293   4      
 294   4                      /* Check DayOfWeek */
 295   4                      if(RTC_1_currentTimeDate.DayOfWeek > RTC_1_WEEK_ELAPSED)
 296   4                      {
 297   5                          /* start new week */
 298   5                          RTC_1_currentTimeDate.DayOfWeek = 1u;
 299   5                      }
 300   4      
 301   4                      /* Day of month roll over.
C51 COMPILER V9.51   RTC_1_INT                                                             05/01/2014 19:52:20 PAGE 6   

 302   4                      * Check if day of month greater than 29 in February of leap year or
 303   4                      * if day of month greater than 28 NOT in February of NON leap year or
 304   4                      * if day of month greater than it should be in every month in non leap year
 305   4                      */
 306   4                      if(((0u != (RTC_1_statusDateTime & RTC_1_STATUS_LY)) &&
 307   4                          (RTC_1_currentTimeDate.Month == RTC_1_FEBRUARY)  &&
 308   4                          (RTC_1_currentTimeDate.DayOfMonth >
 309   4                                   (RTC_1_daysInMonths[RTC_1_currentTimeDate.Month - 1u] + 1u))) ||
 310   4                         ((0u != (RTC_1_statusDateTime & RTC_1_STATUS_LY))  &&
 311   4                          (RTC_1_currentTimeDate.Month != RTC_1_FEBRUARY) &&
 312   4                          (RTC_1_currentTimeDate.DayOfMonth >
 313   4                                          RTC_1_daysInMonths[RTC_1_currentTimeDate.Month - 1u])) ||
 314   4                         ((0u == (RTC_1_statusDateTime & RTC_1_STATUS_LY))  &&
 315   4                          (RTC_1_currentTimeDate.DayOfMonth >
 316   4                                          RTC_1_daysInMonths[RTC_1_currentTimeDate.Month - 1u])))
 317   4                      {
 318   5                          /* Inc Month */
 319   5                          RTC_1_currentTimeDate.Month++;
 320   5      
 321   5                          /* Set first day of month */
 322   5                          RTC_1_currentTimeDate.DayOfMonth = 1u;
 323   5      
 324   5                          /* Year roll over */
 325   5                          if(RTC_1_currentTimeDate.Month > RTC_1_YEAR_ELAPSED)
 326   5                          {
 327   6                              /* Inc Year */
 328   6                              RTC_1_currentTimeDate.Year++;
 329   6      
 330   6                              /* Set first month of year */
 331   6                              RTC_1_currentTimeDate.Month = 1u;
 332   6      
 333   6                              /* Set first day of year */
 334   6                              RTC_1_currentTimeDate.DayOfYear = 1u;
 335   6      
 336   6                              /* Is this year leap */
 337   6                              if(1u == RTC_1_LEAP_YEAR(RTC_1_currentTimeDate.Year))
 338   6                              {
 339   7                                  /* Set leap year flag */
 340   7                                  RTC_1_statusDateTime |= RTC_1_STATUS_LY;
 341   7                              }
 342   6                              else    /* not leap year */
 343   6                              {
 344   7                                  /* Clear leap year */
 345   7                                  RTC_1_statusDateTime &= (uint8)(~RTC_1_STATUS_LY);
 346   7                              }
 347   6      
 348   6                              /* Alarm YEAR */
 349   6                              if(0u != RTC_1_IS_BIT_SET(RTC_1_alarmCfgMask,
 350   6                                                                   RTC_1_ALARM_YEAR_MASK))
 351   6                              {
 352   7                                  /* Years match */
 353   7                                  if(RTC_1_alarmCfgTimeDate.Year == RTC_1_currentTimeDate.Year)
 354   7                                  {
 355   8                                      /* Rise year alarm */
 356   8                                      RTC_1_alarmCurStatus |= RTC_1_ALARM_YEAR_MASK;
 357   8                                  }
 358   7                                  else    /* Years do not match */
 359   7                                  {
 360   8                                      /* Clear year alarm */
 361   8                                      RTC_1_alarmCurStatus &= (uint8)(~RTC_1_ALARM_YEAR_MASK);
 362   8                                  }
 363   7                              } /* do not alarm year */
C51 COMPILER V9.51   RTC_1_INT                                                             05/01/2014 19:52:20 PAGE 7   

 364   6      
 365   6                              /* Set Alarm flag event */
 366   6                              RTC_1_tmp = RTC_1_alarmCfgMask;
 367   6                              RTC_1_SET_ALARM(RTC_1_tmp,
 369   6                                                         RTC_1_alarmCurStatus,
 369   6                                                         RTC_1_statusDateTime);
 370   6      
 371   6                              /* Every Year */
 372   6                              if(0u != RTC_1_IS_BIT_SET(RTC_1_intervalCfgMask,
 373   6                                                                   RTC_1_INTERVAL_YEAR_MASK))
 374   6                              {
 375   7                                  RTC_1_EveryYearHandler();
 376   7                              }
 377   6      
 378   6                          } /* Month > 12 */
 379   5      
 380   5                          /* Alarm MONTH */
 381   5                          if(0u != RTC_1_IS_BIT_SET(RTC_1_alarmCfgMask,
 382   5                                                               RTC_1_ALARM_MONTH_MASK))
 383   5                          {
 384   6                              if(RTC_1_alarmCfgTimeDate.Month == RTC_1_currentTimeDate.Month)
 385   6                              {
 386   7                                  /* Set month alarm */
 387   7                                  RTC_1_alarmCurStatus |= RTC_1_ALARM_MONTH_MASK;
 388   7                              }
 389   6                              else
 390   6                              {
 391   7                                  /* Clear month alarm */
 392   7                                  RTC_1_alarmCurStatus &= (uint8)(~RTC_1_ALARM_MONTH_MASK);
 393   7                              }
 394   6                          }   /* Month alarm is masked */
 395   5      
 396   5                          #if (1u == RTC_1_DST_FUNC_ENABLE)
 397   5                              if(RTC_1_dstTimeDateStop.Month == RTC_1_currentTimeDate.Month)
 398   5                              {
 399   6                                  RTC_1_dstStopStatus |= RTC_1_DST_MONTH;
 400   6                              }
 401   5                              else
 402   5                              {
 403   6                                  RTC_1_dstStopStatus &= (uint8)(~RTC_1_DST_MONTH);
 404   6                              }
 405   5      
 406   5                              if(RTC_1_dstTimeDateStart.Month == RTC_1_currentTimeDate.Month)
 407   5                              {
 408   6                                  RTC_1_dstStartStatus |= RTC_1_DST_MONTH;
 409   6                              }
 410   5                              else
 411   5                              {
 412   6                                  RTC_1_dstStartStatus &= (uint8)(~RTC_1_DST_MONTH);
 413   6                              }
 414   5                          #endif /* 1u == RTC_1_DST_FUNC_ENABLE */
 415   5      
 416   5                          /* Set Alarm flag event */
 417   5                          RTC_1_tmp = RTC_1_alarmCfgMask;
 418   5                          RTC_1_SET_ALARM(RTC_1_tmp,
 420   5                                                     RTC_1_alarmCurStatus,
 420   5                                                     RTC_1_statusDateTime);
 421   5      
 422   5                          /* Every Month */
 423   5                          if(0u != RTC_1_IS_BIT_SET(RTC_1_intervalCfgMask,
 424   5                                                               RTC_1_INTERVAL_MONTH_MASK))
 425   5                          {
C51 COMPILER V9.51   RTC_1_INT                                                             05/01/2014 19:52:20 PAGE 8   

 426   6                              RTC_1_EveryMonthHandler();
 427   6                          }
 428   5                      }   /* Day roll over */
 429   4      
 430   4                      /* Alarm DAYOFWEEK */
 431   4                      if(0u != RTC_1_IS_BIT_SET(RTC_1_alarmCfgMask,
 432   4                                                           RTC_1_ALARM_DAYOFWEEK_MASK))
 433   4                      {
 434   5                          if(RTC_1_alarmCfgTimeDate.DayOfWeek == RTC_1_currentTimeDate.DayOfWeek)
 435   5                          {
 436   6                              /* Set day of week alarm */
 437   6                              RTC_1_alarmCurStatus |= RTC_1_ALARM_DAYOFWEEK_MASK;
 438   6                          }
 439   5                          else
 440   5                          {
 441   6                              /* Clear day of week alarm */
 442   6                              RTC_1_alarmCurStatus &= (uint8)(~RTC_1_ALARM_DAYOFWEEK_MASK);
 443   6                          }
 444   5                      }   /* Day of week alarm is masked */
 445   4      
 446   4                      /* Alarm DAYOFYEAR */
 447   4                      if(0u != RTC_1_IS_BIT_SET(RTC_1_alarmCfgMask,
 448   4                                                           RTC_1_ALARM_DAYOFYEAR_MASK))
 449   4                      {
 450   5                          if(RTC_1_alarmCfgTimeDate.DayOfYear == RTC_1_currentTimeDate.DayOfYear)
 451   5                          {
 452   6                              /* Set day of year alarm */
 453   6                              RTC_1_alarmCurStatus |= RTC_1_ALARM_DAYOFYEAR_MASK;
 454   6                          }
 455   5                          else
 456   5                          {
 457   6                              /* Clear day of year alarm */
 458   6                              RTC_1_alarmCurStatus &= (uint8)(~RTC_1_ALARM_DAYOFYEAR_MASK);
 459   6                          }
 460   5                      }   /* Day of year alarm is masked */
 461   4      
 462   4                      /* Alarm DAYOFMONTH */
 463   4                      if(0u != RTC_1_IS_BIT_SET(RTC_1_alarmCfgMask,
 464   4                               RTC_1_ALARM_DAYOFMONTH_MASK))
 465   4                      {
 466   5                          if(RTC_1_alarmCfgTimeDate.DayOfMonth == RTC_1_currentTimeDate.DayOfMonth)
 467   5                          {
 468   6                              /* Set day of month alarm */
 469   6                              RTC_1_alarmCurStatus |= RTC_1_ALARM_DAYOFMONTH_MASK;
 470   6                          }
 471   5                          else
 472   5                          {
 473   6                              /* Clear day of month alarm */
 474   6                              RTC_1_alarmCurStatus &= (uint8)(~RTC_1_ALARM_DAYOFMONTH_MASK);
 475   6                          }
 476   5                      }   /* Day of month alarm is masked */
 477   4      
 478   4                      #if (1u == RTC_1_DST_FUNC_ENABLE)
 479   4                          if(RTC_1_dstTimeDateStop.DayOfMonth == RTC_1_currentTimeDate.DayOfMonth)
 480   4                          {
 481   5                              RTC_1_dstStopStatus |= RTC_1_DST_DAYOFMONTH;
 482   5                          }
 483   4                          else
 484   4                          {
 485   5                              RTC_1_dstStopStatus &= (uint8)(~RTC_1_DST_DAYOFMONTH);
 486   5                          }
 487   4      
C51 COMPILER V9.51   RTC_1_INT                                                             05/01/2014 19:52:20 PAGE 9   

 488   4                          if(RTC_1_dstTimeDateStart.DayOfMonth == RTC_1_currentTimeDate.DayOfMonth)
 489   4                          {
 490   5                              RTC_1_dstStartStatus |= RTC_1_DST_DAYOFMONTH;
 491   5                          }
 492   4                          else
 493   4                          {
 494   5                              RTC_1_dstStartStatus &= (uint8)(~RTC_1_DST_DAYOFMONTH);
 495   5                          }
 496   4                      #endif /* 1u == RTC_1_DST_FUNC_ENABLE */
 497   4      
 498   4                      /* Set Alarm flag event */
 499   4                      RTC_1_tmp = RTC_1_alarmCfgMask;
 500   4                      RTC_1_SET_ALARM(RTC_1_tmp,
 502   4                                                 RTC_1_alarmCurStatus,
 502   4                                                 RTC_1_statusDateTime);
 503   4      
 504   4                      /* Every Day */
 505   4                      if(0u != RTC_1_IS_BIT_SET(RTC_1_intervalCfgMask,
 506   4                               RTC_1_INTERVAL_DAY_MASK))
 507   4                      {
 508   5                          RTC_1_EveryDayHandler();
 509   5                      }
 510   4      
 511   4                      if(1u == RTC_1_currentTimeDate.DayOfWeek)
 512   4                      {
 513   5                          /* Every Week */
 514   5                          if(0u != RTC_1_IS_BIT_SET(RTC_1_intervalCfgMask,
 515   5                                                               RTC_1_INTERVAL_WEEK_MASK))
 516   5                          {
 517   6                             RTC_1_EveryWeekHandler();
 518   6                          }
 519   5                      }
 520   4      
 521   4                  } /* End of day roll over */
 522   3      
 523   3                  /* Status set PM/AM flag */
 524   3                  if(RTC_1_currentTimeDate.Hour < RTC_1_HALF_OF_DAY_ELAPSED)
 525   3                  {
 526   4                      /* AM Hour 00:00-11:59, flag zero */
 527   4                      RTC_1_statusDateTime &= (uint8)(~RTC_1_STATUS_AM_PM);
 528   4                  }
 529   3                  else
 530   3                  {
 531   4                      /* PM Hour 12:00-23:59, flag set */
 532   4                      RTC_1_statusDateTime |= RTC_1_STATUS_AM_PM;
 533   4                  }
 534   3      
 535   3                  #if (1u == RTC_1_DST_FUNC_ENABLE)
 536   3                      if(RTC_1_dstTimeDateStop.Hour == RTC_1_currentTimeDate.Hour)
 537   3                      {
 538   4                          RTC_1_dstStopStatus |= RTC_1_DST_HOUR;
 539   4                      }
 540   3                      else
 541   3                      {
 542   4                          RTC_1_dstStopStatus &= (uint8)(~RTC_1_DST_HOUR);
 543   4                      }
 544   3      
 545   3                      if(RTC_1_dstTimeDateStart.Hour == RTC_1_currentTimeDate.Hour)
 546   3                      {
 547   4                          RTC_1_dstStartStatus |= RTC_1_DST_HOUR;
 548   4                      }
 549   3                      else
C51 COMPILER V9.51   RTC_1_INT                                                             05/01/2014 19:52:20 PAGE 10  

 550   3                      {
 551   4                      RTC_1_dstStartStatus &= (uint8)(~RTC_1_DST_HOUR);
 552   4                      }
 553   3      
 554   3                      /* DST Enable ? */
 555   3                      if(0u != RTC_1_IS_BIT_SET(RTC_1_dstModeType, RTC_1_DST_ENABLE))
 556   3                      {
 557   4                          if(0u != RTC_1_IS_BIT_SET(RTC_1_statusDateTime, RTC_1_STATUS_DST))
 558   4                          {
 559   5                              if(0u != RTC_1_IS_BIT_SET(RTC_1_dstStopStatus, RTC_1_DST_HOUR |
 560   5                                                             RTC_1_DST_DAYOFMONTH | RTC_1_DST_MONTH))
 561   5                              {
 562   6                                  /* Substruct from current value of minutes, number of minutes
 563   6                                  * in DST offset which is out of complete hour
 564   6                                  */
 565   6                                  RTC_1_currentTimeDate.Min -=
 566   6                                                      RTC_1_dstOffsetMin % (RTC_1_HOUR_ELAPSED + 1u);
 567   6      
 568   6                                  /* Is minute value negative? */
 569   6                                  if(RTC_1_currentTimeDate.Min > RTC_1_HOUR_ELAPSED)
 570   6                                  {
 571   7                                      /* Convert to the positive.
 572   7                                      * HOUR_ELAPSED -     (~currentTimeDate.Min    ) ==
 573   7                                      * HOUR_ELAPSED + 1 - (~currentTimeDate.Min + 1)
 574   7                                      */
 575   7                                      RTC_1_currentTimeDate.Min = RTC_1_HOUR_ELAPSED -
 576   7                                                                   ((uint8)(~RTC_1_currentTimeDate.Min));
 577   7      
 578   7                                      RTC_1_currentTimeDate.Hour--;
 579   7                                  }
 580   6      
 581   6                                  RTC_1_currentTimeDate.Hour -= RTC_1_dstOffsetMin /
 582   6                                                                           (RTC_1_HOUR_ELAPSED + 1u);
 583   6      
 584   6                                  /* Day roll over
 585   6                                  * Is hour value negative? */
 586   6                                  if(RTC_1_currentTimeDate.Hour > RTC_1_DAY_ELAPSED)
 587   6                                  {
 588   7                                      /* Convert to the positive.
 589   7                                      * DAY_ELAPSED - (~currentTimeDate.Hour) ==
 590   7                                      * DAY_ELAPSED + 1 - (~currentTimeDate.Hour + 1)
 591   7                                      */
 592   7                                      RTC_1_currentTimeDate.Hour = RTC_1_DAY_ELAPSED -
 593   7                                                                    ((uint8)(~RTC_1_currentTimeDate.Hour));
 594   7      
 595   7                                      /* Status set PM/AM flag */
 596   7                                      if(RTC_1_currentTimeDate.Hour < RTC_1_HALF_OF_DAY_ELAPSED)
 597   7                                      {
 598   8                                          /* AM Hour 00:00-11:59, flag zero */
 599   8                                          RTC_1_statusDateTime &= (uint8)(~RTC_1_STATUS_AM_PM);
 600   8                                      }
 601   7                                      else
 602   7                                      {
 603   8                                          /* PM Hour 12:00-23:59, flag set */
 604   8                                          RTC_1_statusDateTime |= RTC_1_STATUS_AM_PM;
 605   8                                      }
 606   7      
 607   7                                      RTC_1_currentTimeDate.DayOfMonth--;
 608   7                                      RTC_1_currentTimeDate.DayOfYear--;
 609   7                                      RTC_1_currentTimeDate.DayOfWeek--;
 610   7      
 611   7                                      if(0u == RTC_1_currentTimeDate.DayOfWeek)
C51 COMPILER V9.51   RTC_1_INT                                                             05/01/2014 19:52:20 PAGE 11  

 612   7                                      {
 613   8                                          RTC_1_currentTimeDate.DayOfWeek = RTC_1_DAYS_IN_WEEK;
 614   8                                      }
 615   7      
 616   7                                      if(0u == RTC_1_currentTimeDate.DayOfMonth)
 617   7                                      {
 618   8                                          RTC_1_currentTimeDate.Month--;
 619   8                                          if(0u == RTC_1_currentTimeDate.Month)
 620   8                                          {
 621   9                                              RTC_1_currentTimeDate.Month = RTC_1_DECEMBER;
 622   9      
 623   9                                              RTC_1_currentTimeDate.DayOfMonth =
 624   9                                                  RTC_1_daysInMonths[RTC_1_currentTimeDate.Month - 1u];
 625   9      
 626   9                                              RTC_1_currentTimeDate.Year--;
 627   9      
 628   9                                              if(1u == RTC_1_LEAP_YEAR(RTC_1_currentTimeDate.Year))
 629   9                                              {
 630  10                                                  /* LP - true, else - false */
 631  10                                                  RTC_1_statusDateTime |= RTC_1_STATUS_LY;
 632  10                                                  RTC_1_currentTimeDate.DayOfYear =
 633  10                                                                                          RTC_1_DAYS_IN_LEAP_YEA
             -R;
 634  10                                              }
 635   9                                              else
 636   9                                              {
 637  10                                                  RTC_1_statusDateTime &= (uint8)(~RTC_1_STATUS_LY);
 638  10                                                  RTC_1_currentTimeDate.DayOfYear = RTC_1_DAYS_IN_YEAR;
 639  10                                              }
 640   9                                              RTC_1_EveryYearHandler();
 641   9                                          }
 642   8                                          else
 643   8                                          {
 644   9                                              /* Day of month roll over.
 645   9                                              * Check if day of month February 29 of leap year
 646   9                                              */
 647   9                                              if((0u != (RTC_1_statusDateTime & RTC_1_STATUS_LY)) &&
 648   9                                                  (RTC_1_currentTimeDate.Month == RTC_1_FEBRUARY))
 649   9                                              {
 650  10                                                  RTC_1_currentTimeDate.DayOfMonth =
 651  10                                                  RTC_1_daysInMonths[RTC_1_currentTimeDate.Month - 1u]
 652  10                                                  + 1u;
 653  10                                              }
 654   9                                              else
 655   9                                              {
 656  10                                                  RTC_1_currentTimeDate.DayOfMonth =
 657  10                                                  RTC_1_daysInMonths[RTC_1_currentTimeDate.Month - 1u];
 658  10                                              }
 659   9                                          }
 660   8                                          RTC_1_EveryMonthHandler();
 661   8                                      }
 662   7                                      RTC_1_EveryDayHandler();
 663   7                                  }
 664   6                                  RTC_1_statusDateTime &= (uint8)(~RTC_1_STATUS_DST);
 665   6                                  RTC_1_dstStopStatus = 0u;
 666   6                              }
 667   5                          }
 668   4                          else
 669   4                          {
 670   5                              if(0u != RTC_1_IS_BIT_SET(RTC_1_dstStartStatus,
 672   5                                                            (RTC_1_DST_HOUR | RTC_1_DST_DAYOFMONTH |
 672   5                                                             RTC_1_DST_MONTH)))
C51 COMPILER V9.51   RTC_1_INT                                                             05/01/2014 19:52:20 PAGE 12  

 673   5                              {
 674   6                                  /* Add Hour and Min */
 675   6                                  RTC_1_currentTimeDate.Min +=
 676   6                                                      RTC_1_dstOffsetMin % (RTC_1_HOUR_ELAPSED + 1u);
 677   6      
 678   6                                  if(RTC_1_currentTimeDate.Min > RTC_1_HOUR_ELAPSED)
 679   6                                  {
 680   7                                      /* Adjust Min */
 681   7                                      RTC_1_currentTimeDate.Min -= (RTC_1_HOUR_ELAPSED + 1u);
 682   7                                      RTC_1_currentTimeDate.Hour++;
 683   7                                  }
 684   6      
 685   6                                  RTC_1_currentTimeDate.Hour += RTC_1_dstOffsetMin /
 686   6                                                                           (RTC_1_HOUR_ELAPSED + 1u);
 687   6      
 688   6                                  if(RTC_1_currentTimeDate.Hour > RTC_1_DAY_ELAPSED)
 689   6                                  {
 690   7                                      /* Adjust hour, add day */
 691   7                                      RTC_1_currentTimeDate.Hour -= (RTC_1_DAY_ELAPSED + 1u);
 692   7      
 693   7                                      /* Status set PM/AM flag */
 694   7                                      if(RTC_1_currentTimeDate.Hour < RTC_1_HALF_OF_DAY_ELAPSED)
 695   7                                      {
 696   8                                          /* AM Hour 00:00-11:59, flag zero */
 697   8                                          RTC_1_statusDateTime &= (uint8)(~RTC_1_STATUS_AM_PM);
 698   8                                      }
 699   7                                      else
 700   7                                      {
 701   8                                          /* PM Hour 12:00-23:59, flag set */
 702   8                                          RTC_1_statusDateTime |= RTC_1_STATUS_AM_PM;
 703   8                                      }
 704   7      
 705   7                                      RTC_1_currentTimeDate.DayOfMonth++;
 706   7                                      RTC_1_currentTimeDate.DayOfYear++;
 707   7                                      RTC_1_currentTimeDate.DayOfWeek++;
 708   7      
 709   7                                      if(RTC_1_currentTimeDate.DayOfWeek > RTC_1_WEEK_ELAPSED)
 710   7                                      {
 711   8                                          RTC_1_currentTimeDate.DayOfWeek = 1u;
 712   8                                      }
 713   7      
 714   7                                      /* Day of month roll over.
 715   7                                      * Check if day of month greater than 29 in February of leap year or
 716   7                                      * if day of month greater than 28 NOT in February of NON leap year or
 717   7                                      * if day of month greater than it should be in every month in non leap yea
             -r
 718   7                                      */
 719   7                                      if(((0u != (RTC_1_statusDateTime & RTC_1_STATUS_LY)) &&
 720   7                                          (RTC_1_currentTimeDate.Month == RTC_1_FEBRUARY)  &&
 721   7                                          (RTC_1_currentTimeDate.DayOfMonth >
 722   7                                        (RTC_1_daysInMonths[RTC_1_currentTimeDate.Month - 1u] + 1u))) ||
 723   7                                         ((0u != (RTC_1_statusDateTime & RTC_1_STATUS_LY)) &&
 724   7                                          (RTC_1_currentTimeDate.Month != RTC_1_FEBRUARY)  &&
 725   7                                          (RTC_1_currentTimeDate.DayOfMonth >
 726   7                                           RTC_1_daysInMonths[RTC_1_currentTimeDate.Month - 1u])) ||
 727   7                                         ((0u == (RTC_1_statusDateTime & RTC_1_STATUS_LY)) &&
 728   7                                          (RTC_1_currentTimeDate.DayOfMonth >
 729   7                                           RTC_1_daysInMonths[RTC_1_currentTimeDate.Month - 1u])))
 730   7                                      {
 731   8                                          RTC_1_currentTimeDate.Month++;
 732   8                                          RTC_1_currentTimeDate.DayOfMonth = 1u;
 733   8                                          if(RTC_1_currentTimeDate.Month > RTC_1_YEAR_ELAPSED)
C51 COMPILER V9.51   RTC_1_INT                                                             05/01/2014 19:52:20 PAGE 13  

 734   8                                          {
 735   9                                              RTC_1_currentTimeDate.Month = RTC_1_JANUARY;
 736   9                                              RTC_1_currentTimeDate.Year++;
 737   9      
 738   9                                              if(1u == RTC_1_LEAP_YEAR(RTC_1_currentTimeDate.Year))
 739   9                                              {
 740  10                                                  /* LP - true, else - false */
 741  10                                                  RTC_1_statusDateTime |= RTC_1_STATUS_LY;
 742  10                                              }
 743   9                                              else
 744   9                                              {
 745  10                                                  RTC_1_statusDateTime &= (uint8)(~RTC_1_STATUS_LY);
 746  10                                              }
 747   9                                              RTC_1_currentTimeDate.DayOfYear = 1u;
 748   9      
 749   9                                              RTC_1_EveryYearHandler();
 750   9                                          }
 751   8                                          RTC_1_EveryMonthHandler();
 752   8                                      }
 753   7                                      RTC_1_EveryDayHandler();
 754   7                                  }
 755   6                                  RTC_1_statusDateTime |= RTC_1_STATUS_DST;
 756   6                                  RTC_1_dstStartStatus = 0u;
 757   6      
 758   6                                  /* Month */
 759   6                                  if(RTC_1_dstTimeDateStop.Month == RTC_1_currentTimeDate.Month)
 760   6                                  {
 761   7                                      RTC_1_dstStopStatus |= RTC_1_DST_MONTH;
 762   7                                  }
 763   6                                  else
 764   6                                  {
 765   7                                      RTC_1_dstStopStatus &= (uint8)(~RTC_1_DST_MONTH);
 766   7                                  }
 767   6      
 768   6                                  /* DayOfMonth */
 769   6                                  if(RTC_1_dstTimeDateStop.DayOfMonth ==
 770   6                                                                                  RTC_1_currentTimeDate.DayOfMon
             -th)
 771   6                                  {
 772   7                                      RTC_1_dstStopStatus |= RTC_1_DST_DAYOFMONTH;
 773   7                                  }
 774   6                                  else
 775   6                                  {
 776   7                                      RTC_1_dstStopStatus &= (uint8)(~RTC_1_DST_DAYOFMONTH);
 777   7                                  }
 778   6                              }
 779   5                          }
 780   4      
 781   4                          /* Alarm DAYOFWEEK */
 782   4                          if(0u != RTC_1_IS_BIT_SET(RTC_1_alarmCfgMask,
 783   4                                                               RTC_1_ALARM_DAYOFWEEK_MASK))
 784   4                          {
 785   5                              if(RTC_1_alarmCfgTimeDate.DayOfWeek == RTC_1_currentTimeDate.DayOfWeek)
 786   5                              {
 787   6                                  RTC_1_alarmCurStatus |= RTC_1_ALARM_DAYOFWEEK_MASK;
 788   6                              }
 789   5                              else
 790   5                              {
 791   6                                  RTC_1_alarmCurStatus &= (uint8)(~RTC_1_ALARM_DAYOFWEEK_MASK);
 792   6                              }
 793   5                          }
 794   4      
C51 COMPILER V9.51   RTC_1_INT                                                             05/01/2014 19:52:20 PAGE 14  

 795   4                          /* Alarm DAYOFYEAR */
 796   4                          if(0u != RTC_1_IS_BIT_SET(RTC_1_alarmCfgMask,
 797   4                                                               RTC_1_ALARM_DAYOFYEAR_MASK))
 798   4                          {
 799   5                              if(RTC_1_alarmCfgTimeDate.DayOfYear == RTC_1_currentTimeDate.DayOfYear)
 800   5                              {
 801   6                                  RTC_1_alarmCurStatus |= RTC_1_ALARM_DAYOFYEAR_MASK;
 802   6                              }
 803   5                              else
 804   5                              {
 805   6                                  RTC_1_alarmCurStatus &= (uint8)(~RTC_1_ALARM_DAYOFYEAR_MASK);
 806   6                              }
 807   5                          }
 808   4      
 809   4                          /* Alarm DAYOFMONTH */
 810   4                          if(0u != RTC_1_IS_BIT_SET(RTC_1_alarmCfgMask,
 811   4                                                               RTC_1_ALARM_DAYOFMONTH_MASK))
 812   4                          {
 813   5                              if(RTC_1_alarmCfgTimeDate.DayOfMonth == RTC_1_currentTimeDate.DayOfMonth)
 814   5                              {
 815   6                                  RTC_1_alarmCurStatus |= RTC_1_ALARM_DAYOFMONTH_MASK;
 816   6                              }
 817   5                              else
 818   5                              {
 819   6                                  RTC_1_alarmCurStatus &= (uint8)(~RTC_1_ALARM_DAYOFMONTH_MASK);
 820   6                              }
 821   5                          }
 822   4      
 823   4                          /* Alarm MONTH */
 824   4                          if(0u != RTC_1_IS_BIT_SET(RTC_1_alarmCfgMask,
 825   4                                                               RTC_1_ALARM_MONTH_MASK))
 826   4                          {
 827   5                              if(RTC_1_alarmCfgTimeDate.Month == RTC_1_currentTimeDate.Month)
 828   5                              {
 829   6                                  RTC_1_alarmCurStatus |= RTC_1_ALARM_MONTH_MASK;
 830   6                              }
 831   5                              else
 832   5                              {
 833   6                                  RTC_1_alarmCurStatus &= (uint8)(~RTC_1_ALARM_MONTH_MASK);
 834   6                              }
 835   5                          }
 836   4      
 837   4                          /* Alarm YEAR */
 838   4                          if(0u != RTC_1_IS_BIT_SET(RTC_1_alarmCfgMask,
 839   4                                                               RTC_1_ALARM_YEAR_MASK))
 840   4                          {
 841   5                              if(RTC_1_alarmCfgTimeDate.Year == RTC_1_currentTimeDate.Year)
 842   5                              {
 843   6                                  RTC_1_alarmCurStatus |= RTC_1_ALARM_YEAR_MASK;
 844   6                              }
 845   5                              else
 846   5                              {
 847   6                                  RTC_1_alarmCurStatus &= (uint8)(~RTC_1_ALARM_YEAR_MASK);
 848   6                              }
 849   5                          }
 850   4      
 851   4                          /* Set Alarm flag event */
 852   4                          RTC_1_tmp = RTC_1_alarmCfgMask;
 853   4                          RTC_1_SET_ALARM(RTC_1_tmp,
 855   4                                                     RTC_1_alarmCurStatus,
 855   4                                                     RTC_1_statusDateTime);
 856   4                      }
C51 COMPILER V9.51   RTC_1_INT                                                             05/01/2014 19:52:20 PAGE 15  

 857   3                  #endif /* 1u == RTC_1_DST_FUNC_ENABLE */
 858   3      
 859   3                  /* Alarm HOUR */
 860   3                  if(0u != RTC_1_IS_BIT_SET(RTC_1_alarmCfgMask, RTC_1_ALARM_HOUR_MASK))
 861   3                  {
 862   4                      if(RTC_1_alarmCfgTimeDate.Hour == RTC_1_currentTimeDate.Hour)
 863   4                      {
 864   5                          RTC_1_alarmCurStatus |= RTC_1_ALARM_HOUR_MASK;
 865   5                      }
 866   4                      else
 867   4                      {
 868   5                          RTC_1_alarmCurStatus &= (uint8)(~RTC_1_ALARM_HOUR_MASK);
 869   5                      }
 870   4                  }
 871   3      
 872   3                  /* Set Alarm flag event */
 873   3                  RTC_1_tmp = RTC_1_alarmCfgMask;
 874   3                  RTC_1_SET_ALARM(RTC_1_tmp,
 876   3                                             RTC_1_alarmCurStatus,
 876   3                                             RTC_1_statusDateTime);
 877   3      
 878   3                  /* Every Hour */
 879   3                  if(0u != RTC_1_IS_BIT_SET(RTC_1_intervalCfgMask, RTC_1_INTERVAL_HOUR_MASK))
 880   3                  {
 881   4                      RTC_1_EveryHourHandler();
 882   4                  }
 883   3              } /* Min > 59 = Hour */
 884   2      
 885   2              /* Alarm MIN */
 886   2              if(0u != RTC_1_IS_BIT_SET(RTC_1_alarmCfgMask, RTC_1_ALARM_MIN_MASK))
 887   2              {
 888   3                  if(RTC_1_alarmCfgTimeDate.Min == RTC_1_currentTimeDate.Min)
 889   3                  {
 890   4                      RTC_1_alarmCurStatus |= RTC_1_ALARM_MIN_MASK;
 891   4                  }
 892   3                  else
 893   3                  {
 894   4                      RTC_1_alarmCurStatus &= (uint8)(~RTC_1_ALARM_MIN_MASK);
 895   4                  }
 896   3              }
 897   2      
 898   2              /* Set Alarm flag event */
 899   2              RTC_1_tmp = RTC_1_alarmCfgMask;
 900   2              RTC_1_SET_ALARM(RTC_1_tmp,
 902   2                                         RTC_1_alarmCurStatus,
 902   2                                         RTC_1_statusDateTime);
 903   2      
 904   2              /* Every Min */
 905   2              if(0u != RTC_1_IS_BIT_SET(RTC_1_intervalCfgMask, RTC_1_INTERVAL_MIN_MASK))
 906   2              {
 907   3                  RTC_1_EveryMinuteHandler();
 908   3              }
 909   2          } /* Sec */
 910   1      
 911   1          /* Alarm SEC */
 912   1          if(0u != RTC_1_IS_BIT_SET(RTC_1_alarmCfgMask, RTC_1_ALARM_SEC_MASK))
 913   1          {
 914   2              if(RTC_1_alarmCfgTimeDate.Sec == RTC_1_currentTimeDate.Sec)
 915   2              {
 916   3                  RTC_1_alarmCurStatus |= RTC_1_ALARM_SEC_MASK;
 917   3              }
 918   2              else
C51 COMPILER V9.51   RTC_1_INT                                                             05/01/2014 19:52:20 PAGE 16  

 919   2              {
 920   3                  RTC_1_alarmCurStatus &= (uint8)(~RTC_1_ALARM_SEC_MASK);
 921   3              }
 922   2          }
 923   1      
 924   1          /* Set Alarm flag event */
 925   1          RTC_1_tmp = RTC_1_alarmCfgMask;
 926   1          RTC_1_SET_ALARM(RTC_1_tmp, RTC_1_alarmCurStatus, RTC_1_statusDateTime);
 927   1      
 928   1          /* Execute every second handler if needed */
 929   1          if(0u != RTC_1_IS_BIT_SET(RTC_1_intervalCfgMask, RTC_1_INTERVAL_SEC_MASK))
 930   1          {
 931   2              RTC_1_EverySecondHandler();
 932   2          }
 933   1      
 934   1      }
 935          
 936          
 937          /* [] END OF FILE */
C51 COMPILER V9.51   RTC_1_INT                                                             05/01/2014 19:52:20 PAGE 17  

ASSEMBLY LISTING OF GENERATED OBJECT CODE


             ; FUNCTION RTC_1_EverySecondHandler (BEGIN)
                                           ; SOURCE LINE # 53
                                           ; SOURCE LINE # 54
                                           ; SOURCE LINE # 58
0000 120000      E     LCALL   RTC_Int_Handler
                                           ; SOURCE LINE # 61
0003         ?C0001:
0003 22                RET     
             ; FUNCTION RTC_1_EverySecondHandler (END)

             ; FUNCTION RTC_1_EveryMinuteHandler (BEGIN)
                                           ; SOURCE LINE # 78
                                           ; SOURCE LINE # 79
                                           ; SOURCE LINE # 83
0000 120000      E     LCALL   RTC_Int_Handler
                                           ; SOURCE LINE # 86
0003         ?C0002:
0003 22                RET     
             ; FUNCTION RTC_1_EveryMinuteHandler (END)

             ; FUNCTION RTC_1_EveryHourHandler (BEGIN)
                                           ; SOURCE LINE # 103
                                           ; SOURCE LINE # 104
                                           ; SOURCE LINE # 108
0000 120000      E     LCALL   RTC_Int_Handler
                                           ; SOURCE LINE # 111
0003         ?C0003:
0003 22                RET     
             ; FUNCTION RTC_1_EveryHourHandler (END)

             ; FUNCTION RTC_1_EveryDayHandler (BEGIN)
                                           ; SOURCE LINE # 128
                                           ; SOURCE LINE # 129
                                           ; SOURCE LINE # 133
0000 120000      E     LCALL   RTC_Int_Handler
                                           ; SOURCE LINE # 136
0003         ?C0004:
0003 22                RET     
             ; FUNCTION RTC_1_EveryDayHandler (END)

             ; FUNCTION RTC_1_EveryWeekHandler (BEGIN)
                                           ; SOURCE LINE # 153
                                           ; SOURCE LINE # 154
                                           ; SOURCE LINE # 158
0000 120000      E     LCALL   RTC_Int_Handler
                                           ; SOURCE LINE # 161
0003         ?C0005:
0003 22                RET     
             ; FUNCTION RTC_1_EveryWeekHandler (END)

             ; FUNCTION RTC_1_EveryMonthHandler (BEGIN)
                                           ; SOURCE LINE # 178
                                           ; SOURCE LINE # 179
                                           ; SOURCE LINE # 183
0000 120000      E     LCALL   RTC_Int_Handler
                                           ; SOURCE LINE # 186
0003         ?C0006:
0003 22                RET     
             ; FUNCTION RTC_1_EveryMonthHandler (END)
C51 COMPILER V9.51   RTC_1_INT                                                             05/01/2014 19:52:20 PAGE 18  


             ; FUNCTION RTC_1_EveryYearHandler (BEGIN)
                                           ; SOURCE LINE # 203
                                           ; SOURCE LINE # 204
                                           ; SOURCE LINE # 208
0000 120000      E     LCALL   RTC_Int_Handler
                                           ; SOURCE LINE # 211
0003         ?C0007:
0003 22                RET     
             ; FUNCTION RTC_1_EveryYearHandler (END)

             ; FUNCTION RTC_1_ISR (BEGIN)
0000 C0E0              PUSH    ACC
0002 C0F0              PUSH    B
0004 C083              PUSH    DPH
0006 C082              PUSH    DPL
0008 C085              PUSH    DPH1
000A C084              PUSH    DPL1
000C C086              PUSH    DPS
000E 758600            MOV     DPS,#00H
0011 C000        E     PUSH    ?C?XPAGE1SFR
0013 750000      E     MOV     ?C?XPAGE1SFR,#?C?XPAGE1RST
0016 C0D0              PUSH    PSW
0018 75D000            MOV     PSW,#00H
001B C000              PUSH    AR0
001D C001              PUSH    AR1
001F C002              PUSH    AR2
0021 C003              PUSH    AR3
0023 C004              PUSH    AR4
0025 C005              PUSH    AR5
0027 C006              PUSH    AR6
0029 C007              PUSH    AR7
                                           ; SOURCE LINE # 252
                                           ; SOURCE LINE # 257
002B 7F04              MOV     R7,#04H
002D 120000      E     LCALL   _CyPmReadStatus
                                           ; SOURCE LINE # 260
0030 900000      E     MOV     DPTR,#RTC_1_currentTimeDate
0033 E0                MOVX    A,@DPTR
0034 04                INC     A
0035 F0                MOVX    @DPTR,A
                                           ; SOURCE LINE # 263
0036 900000      E     MOV     DPTR,#RTC_1_currentTimeDate
0039 E0                MOVX    A,@DPTR
003A FF                MOV     R7,A
003B EF                MOV     A,R7
003C D3                SETB    C
003D 943B              SUBB    A,#03BH
003F 5003              JNC     $ + 5H
0041 020000      R     LJMP    ?C0008
                                           ; SOURCE LINE # 264
                                           ; SOURCE LINE # 266
0044 900000      E     MOV     DPTR,#RTC_1_currentTimeDate+01H
0047 E0                MOVX    A,@DPTR
0048 04                INC     A
0049 F0                MOVX    @DPTR,A
                                           ; SOURCE LINE # 269
004A 900000      E     MOV     DPTR,#RTC_1_currentTimeDate
004D E4                CLR     A
004E F0                MOVX    @DPTR,A
                                           ; SOURCE LINE # 271
004F 900000      E     MOV     DPTR,#RTC_1_currentTimeDate+01H
C51 COMPILER V9.51   RTC_1_INT                                                             05/01/2014 19:52:20 PAGE 19  

0052 E0                MOVX    A,@DPTR
0053 FF                MOV     R7,A
0054 EF                MOV     A,R7
0055 D3                SETB    C
0056 943B              SUBB    A,#03BH
0058 5003              JNC     $ + 5H
005A 020000      R     LJMP    ?C0009
                                           ; SOURCE LINE # 272
                                           ; SOURCE LINE # 274
005D 900000      E     MOV     DPTR,#RTC_1_currentTimeDate+02H
0060 E0                MOVX    A,@DPTR
0061 04                INC     A
0062 F0                MOVX    @DPTR,A
                                           ; SOURCE LINE # 277
0063 900000      E     MOV     DPTR,#RTC_1_currentTimeDate+01H
0066 E4                CLR     A
0067 F0                MOVX    @DPTR,A
                                           ; SOURCE LINE # 280
0068 900000      E     MOV     DPTR,#RTC_1_currentTimeDate+02H
006B E0                MOVX    A,@DPTR
006C FF                MOV     R7,A
006D EF                MOV     A,R7
006E D3                SETB    C
006F 9417              SUBB    A,#017H
0071 5003              JNC     $ + 5H
0073 020000      R     LJMP    ?C0010
                                           ; SOURCE LINE # 281
                                           ; SOURCE LINE # 283
0076 900000      E     MOV     DPTR,#RTC_1_currentTimeDate+04H
0079 E0                MOVX    A,@DPTR
007A 04                INC     A
007B F0                MOVX    @DPTR,A
                                           ; SOURCE LINE # 286
007C 900000      E     MOV     DPTR,#RTC_1_currentTimeDate+02H
007F E4                CLR     A
0080 F0                MOVX    @DPTR,A
                                           ; SOURCE LINE # 289
0081 900000      E     MOV     DPTR,#RTC_1_currentTimeDate+05H
0084 E4                CLR     A
0085 75F001            MOV     B,#01H
0088 120000      E     LCALL   ?C?IILDX
                                           ; SOURCE LINE # 292
008B 900000      E     MOV     DPTR,#RTC_1_currentTimeDate+03H
008E E0                MOVX    A,@DPTR
008F 04                INC     A
0090 F0                MOVX    @DPTR,A
                                           ; SOURCE LINE # 295
0091 900000      E     MOV     DPTR,#RTC_1_currentTimeDate+03H
0094 E0                MOVX    A,@DPTR
0095 FF                MOV     R7,A
0096 EF                MOV     A,R7
0097 D3                SETB    C
0098 9407              SUBB    A,#07H
009A 4006              JC      ?C0011
                                           ; SOURCE LINE # 296
                                           ; SOURCE LINE # 298
009C 900000      E     MOV     DPTR,#RTC_1_currentTimeDate+03H
009F 7401              MOV     A,#01H
00A1 F0                MOVX    @DPTR,A
                                           ; SOURCE LINE # 299
00A2         ?C0011:
                                           ; SOURCE LINE # 306
C51 COMPILER V9.51   RTC_1_INT                                                             05/01/2014 19:52:20 PAGE 20  

00A2 900000      E     MOV     DPTR,#RTC_1_statusDateTime
00A5 E0                MOVX    A,@DPTR
00A6 FF                MOV     R7,A
00A7 EF                MOV     A,R7
00A8 5402              ANL     A,#02H
00AA FF                MOV     R7,A
00AB 7E00              MOV     R6,#00H
00AD EF                MOV     A,R7
00AE 4E                ORL     A,R6
00AF 602C              JZ      ?C0014
00B1 900000      E     MOV     DPTR,#RTC_1_currentTimeDate+07H
00B4 E0                MOVX    A,@DPTR
00B5 FF                MOV     R7,A
00B6 EF                MOV     A,R7
00B7 B40223            CJNE    A,#02H,?C0014
00BA 900000      E     MOV     DPTR,#RTC_1_currentTimeDate+07H
00BD E0                MOVX    A,@DPTR
00BE FF                MOV     R7,A
00BF EF                MOV     A,R7
00C0 900000      E     MOV     DPTR,#RTC_1_daysInMonths-01H
00C3 93                MOVC    A,@A+DPTR
00C4 FF                MOV     R7,A
00C5 7E00              MOV     R6,#00H
00C7 EF                MOV     A,R7
00C8 2401              ADD     A,#01H
00CA FF                MOV     R7,A
00CB EE                MOV     A,R6
00CC 3400              ADDC    A,#00H
00CE FE                MOV     R6,A
00CF 900000      E     MOV     DPTR,#RTC_1_currentTimeDate+04H
00D2 E0                MOVX    A,@DPTR
00D3 FD                MOV     R5,A
00D4 7C00              MOV     R4,#00H
00D6 D3                SETB    C
00D7 ED                MOV     A,R5
00D8 9F                SUBB    A,R7
00D9 EC                MOV     A,R4
00DA 9E                SUBB    A,R6
00DB 5058              JNC     ?C0013
00DD         ?C0014:
00DD 900000      E     MOV     DPTR,#RTC_1_statusDateTime
00E0 E0                MOVX    A,@DPTR
00E1 FF                MOV     R7,A
00E2 EF                MOV     A,R7
00E3 5402              ANL     A,#02H
00E5 FF                MOV     R7,A
00E6 7E00              MOV     R6,#00H
00E8 EF                MOV     A,R7
00E9 4E                ORL     A,R6
00EA 601F              JZ      ?C0015
00EC 900000      E     MOV     DPTR,#RTC_1_currentTimeDate+07H
00EF E0                MOVX    A,@DPTR
00F0 FF                MOV     R7,A
00F1 EF                MOV     A,R7
00F2 6402              XRL     A,#02H
00F4 6015              JZ      ?C0015
00F6 900000      E     MOV     DPTR,#RTC_1_currentTimeDate+07H
00F9 E0                MOVX    A,@DPTR
00FA FF                MOV     R7,A
00FB EF                MOV     A,R7
00FC 900000      E     MOV     DPTR,#RTC_1_daysInMonths-01H
00FF 93                MOVC    A,@A+DPTR
C51 COMPILER V9.51   RTC_1_INT                                                             05/01/2014 19:52:20 PAGE 21  

0100 FF                MOV     R7,A
0101 900000      E     MOV     DPTR,#RTC_1_currentTimeDate+04H
0104 E0                MOVX    A,@DPTR
0105 FE                MOV     R6,A
0106 EE                MOV     A,R6
0107 D3                SETB    C
0108 9F                SUBB    A,R7
0109 502A              JNC     ?C0013
010B         ?C0015:
010B 900000      E     MOV     DPTR,#RTC_1_statusDateTime
010E E0                MOVX    A,@DPTR
010F FF                MOV     R7,A
0110 EF                MOV     A,R7
0111 5402              ANL     A,#02H
0113 FF                MOV     R7,A
0114 7E00              MOV     R6,#00H
0116 EF                MOV     A,R7
0117 4E                ORL     A,R6
0118 6003              JZ      $ + 5H
011A 020000      R     LJMP    ?C0012
011D 900000      E     MOV     DPTR,#RTC_1_currentTimeDate+07H
0120 E0                MOVX    A,@DPTR
0121 FF                MOV     R7,A
0122 EF                MOV     A,R7
0123 900000      E     MOV     DPTR,#RTC_1_daysInMonths-01H
0126 93                MOVC    A,@A+DPTR
0127 FF                MOV     R7,A
0128 900000      E     MOV     DPTR,#RTC_1_currentTimeDate+04H
012B E0                MOVX    A,@DPTR
012C FE                MOV     R6,A
012D EE                MOV     A,R6
012E D3                SETB    C
012F 9F                SUBB    A,R7
0130 5003              JNC     $ + 5H
0132 020000      R     LJMP    ?C0012
0135         ?C0013:
                                           ; SOURCE LINE # 317
                                           ; SOURCE LINE # 319
0135 900000      E     MOV     DPTR,#RTC_1_currentTimeDate+07H
0138 E0                MOVX    A,@DPTR
0139 04                INC     A
013A F0                MOVX    @DPTR,A
                                           ; SOURCE LINE # 322
013B 900000      E     MOV     DPTR,#RTC_1_currentTimeDate+04H
013E 7401              MOV     A,#01H
0140 F0                MOVX    @DPTR,A
                                           ; SOURCE LINE # 325
0141 900000      E     MOV     DPTR,#RTC_1_currentTimeDate+07H
0144 E0                MOVX    A,@DPTR
0145 FF                MOV     R7,A
0146 EF                MOV     A,R7
0147 D3                SETB    C
0148 940C              SUBB    A,#0CH
014A 5003              JNC     $ + 5H
014C 020000      R     LJMP    ?C0016
                                           ; SOURCE LINE # 326
                                           ; SOURCE LINE # 328
014F 900000      E     MOV     DPTR,#RTC_1_currentTimeDate+08H
0152 E4                CLR     A
0153 75F001            MOV     B,#01H
0156 120000      E     LCALL   ?C?IILDX
                                           ; SOURCE LINE # 331
C51 COMPILER V9.51   RTC_1_INT                                                             05/01/2014 19:52:20 PAGE 22  

0159 900000      E     MOV     DPTR,#RTC_1_currentTimeDate+07H
015C 7401              MOV     A,#01H
015E F0                MOVX    @DPTR,A
                                           ; SOURCE LINE # 334
015F 900000      E     MOV     DPTR,#RTC_1_currentTimeDate+05H
0162 E4                CLR     A
0163 F0                MOVX    @DPTR,A
0164 A3                INC     DPTR
0165 7401              MOV     A,#01H
0167 F0                MOVX    @DPTR,A
                                           ; SOURCE LINE # 337
0168 900000      E     MOV     DPTR,#RTC_1_currentTimeDate+08H
016B E0                MOVX    A,@DPTR
016C FE                MOV     R6,A
016D A3                INC     DPTR
016E E0                MOVX    A,@DPTR
016F FF                MOV     R7,A
0170 7C01              MOV     R4,#01H
0172 7D90              MOV     R5,#090H
0174 120000      E     LCALL   ?C?UIDIV
0177 ED                MOV     A,R5
0178 4C                ORL     A,R4
0179 6025              JZ      ?C0020
017B 900000      E     MOV     DPTR,#RTC_1_currentTimeDate+08H
017E E0                MOVX    A,@DPTR
017F FE                MOV     R6,A
0180 A3                INC     DPTR
0181 E0                MOVX    A,@DPTR
0182 FF                MOV     R7,A
0183 7E00              MOV     R6,#00H
0185 EF                MOV     A,R7
0186 5403              ANL     A,#03H
0188 FF                MOV     R7,A
0189 EF                MOV     A,R7
018A 4E                ORL     A,R6
018B 7017              JNZ     ?C0018
018D 900000      E     MOV     DPTR,#RTC_1_currentTimeDate+08H
0190 E0                MOVX    A,@DPTR
0191 FE                MOV     R6,A
0192 A3                INC     DPTR
0193 E0                MOVX    A,@DPTR
0194 FF                MOV     R7,A
0195 7C00              MOV     R4,#00H
0197 7D64              MOV     R5,#064H
0199 120000      E     LCALL   ?C?UIDIV
019C ED                MOV     A,R5
019D 4C                ORL     A,R4
019E 6004              JZ      ?C0018
01A0         ?C0020:
01A0 7F01              MOV     R7,#01H
01A2 8002              SJMP    ?C0019
01A4         ?C0018:
01A4 7F00              MOV     R7,#00H
01A6         ?C0019:
01A6 EF                MOV     A,R7
01A7 B40110            CJNE    A,#01H,?C0017
                                           ; SOURCE LINE # 338
                                           ; SOURCE LINE # 340
01AA 900000      E     MOV     DPTR,#RTC_1_statusDateTime
01AD E0                MOVX    A,@DPTR
01AE FF                MOV     R7,A
01AF EF                MOV     A,R7
C51 COMPILER V9.51   RTC_1_INT                                                             05/01/2014 19:52:20 PAGE 23  

01B0 4402              ORL     A,#02H
01B2 FF                MOV     R7,A
01B3 900000      E     MOV     DPTR,#RTC_1_statusDateTime
01B6 EF                MOV     A,R7
01B7 F0                MOVX    @DPTR,A
                                           ; SOURCE LINE # 341
01B8 800E              SJMP    ?C0021
01BA         ?C0017:
                                           ; SOURCE LINE # 343
                                           ; SOURCE LINE # 345
01BA 900000      E     MOV     DPTR,#RTC_1_statusDateTime
01BD E0                MOVX    A,@DPTR
01BE FF                MOV     R7,A
01BF EF                MOV     A,R7
01C0 54FD              ANL     A,#0FDH
01C2 FF                MOV     R7,A
01C3 900000      E     MOV     DPTR,#RTC_1_statusDateTime
01C6 EF                MOV     A,R7
01C7 F0                MOVX    @DPTR,A
                                           ; SOURCE LINE # 346
01C8         ?C0021:
                                           ; SOURCE LINE # 349
01C8 900000      E     MOV     DPTR,#RTC_1_alarmCfgMask
01CB E0                MOVX    A,@DPTR
01CC FF                MOV     R7,A
01CD EF                MOV     A,R7
01CE 5480              ANL     A,#080H
01D0 FF                MOV     R7,A
01D1 7E00              MOV     R6,#00H
01D3 EF                MOV     A,R7
01D4 6480              XRL     A,#080H
01D6 4E                ORL     A,R6
01D7 7004              JNZ     ?C0023
01D9 7F01              MOV     R7,#01H
01DB 8002              SJMP    ?C0024
01DD         ?C0023:
01DD 7F00              MOV     R7,#00H
01DF         ?C0024:
01DF EF                MOV     A,R7
01E0 6036              JZ      ?C0022
                                           ; SOURCE LINE # 351
                                           ; SOURCE LINE # 353
01E2 900000      E     MOV     DPTR,#RTC_1_currentTimeDate+08H
01E5 E0                MOVX    A,@DPTR
01E6 FE                MOV     R6,A
01E7 A3                INC     DPTR
01E8 E0                MOVX    A,@DPTR
01E9 FF                MOV     R7,A
01EA 900000      E     MOV     DPTR,#RTC_1_alarmCfgTimeDate+08H
01ED E0                MOVX    A,@DPTR
01EE FC                MOV     R4,A
01EF A3                INC     DPTR
01F0 E0                MOVX    A,@DPTR
01F1 FD                MOV     R5,A
01F2 ED                MOV     A,R5
01F3 B50714            CJNE    A,AR7,?C0025
01F6 EC                MOV     A,R4
01F7 B50610            CJNE    A,AR6,?C0025
                                           ; SOURCE LINE # 354
                                           ; SOURCE LINE # 356
01FA 900000      E     MOV     DPTR,#RTC_1_alarmCurStatus
01FD E0                MOVX    A,@DPTR
C51 COMPILER V9.51   RTC_1_INT                                                             05/01/2014 19:52:20 PAGE 24  

01FE FF                MOV     R7,A
01FF EF                MOV     A,R7
0200 4480              ORL     A,#080H
0202 FF                MOV     R7,A
0203 900000      E     MOV     DPTR,#RTC_1_alarmCurStatus
0206 EF                MOV     A,R7
0207 F0                MOVX    @DPTR,A
                                           ; SOURCE LINE # 357
0208 800E              SJMP    ?C0022
020A         ?C0025:
                                           ; SOURCE LINE # 359
                                           ; SOURCE LINE # 361
020A 900000      E     MOV     DPTR,#RTC_1_alarmCurStatus
020D E0                MOVX    A,@DPTR
020E FF                MOV     R7,A
020F EF                MOV     A,R7
0210 547F              ANL     A,#07FH
0212 FF                MOV     R7,A
0213 900000      E     MOV     DPTR,#RTC_1_alarmCurStatus
0216 EF                MOV     A,R7
0217 F0                MOVX    @DPTR,A
                                           ; SOURCE LINE # 362
0218         ?C0026:
                                           ; SOURCE LINE # 363
0218         ?C0022:
                                           ; SOURCE LINE # 366
0218 900000      E     MOV     DPTR,#RTC_1_alarmCfgMask
021B E0                MOVX    A,@DPTR
021C FF                MOV     R7,A
021D 900000      R     MOV     DPTR,#RTC_1_tmp
0220 EF                MOV     A,R7
0221 F0                MOVX    @DPTR,A
0222         ?C0029:
                                           ; SOURCE LINE # 369
0222 900000      R     MOV     DPTR,#RTC_1_tmp
0225 E0                MOVX    A,@DPTR
0226 FF                MOV     R7,A
0227 EF                MOV     A,R7
0228 6032              JZ      ?C0028
022A 900000      R     MOV     DPTR,#RTC_1_tmp
022D E0                MOVX    A,@DPTR
022E FF                MOV     R7,A
022F 900000      E     MOV     DPTR,#RTC_1_alarmCurStatus
0232 E0                MOVX    A,@DPTR
0233 FE                MOV     R6,A
0234 EE                MOV     A,R6
0235 5F                ANL     A,R7
0236 FF                MOV     R7,A
0237 900000      R     MOV     DPTR,#RTC_1_tmp
023A E0                MOVX    A,@DPTR
023B FE                MOV     R6,A
023C EF                MOV     A,R7
023D B50604            CJNE    A,AR6,?C0031
0240 7F01              MOV     R7,#01H
0242 8002              SJMP    ?C0032
0244         ?C0031:
0244 7F00              MOV     R7,#00H
0246         ?C0032:
0246 EF                MOV     A,R7
0247 6013              JZ      ?C0028
0249 900000      E     MOV     DPTR,#RTC_1_statusDateTime
024C E0                MOVX    A,@DPTR
C51 COMPILER V9.51   RTC_1_INT                                                             05/01/2014 19:52:20 PAGE 25  

024D FF                MOV     R7,A
024E EF                MOV     A,R7
024F 4408              ORL     A,#08H
0251 FF                MOV     R7,A
0252 900000      E     MOV     DPTR,#RTC_1_statusDateTime
0255 EF                MOV     A,R7
0256 F0                MOVX    @DPTR,A
0257 900000      E     MOV     DPTR,#RTC_1_alarmCurStatus
025A E4                CLR     A
025B F0                MOVX    @DPTR,A
025C         ?C0030:
025C         ?C0027:
025C         ?C0028:
                                           ; SOURCE LINE # 372
025C 900000      E     MOV     DPTR,#RTC_1_intervalCfgMask
025F E0                MOVX    A,@DPTR
0260 FF                MOV     R7,A
0261 EF                MOV     A,R7
0262 5440              ANL     A,#040H
0264 FF                MOV     R7,A
0265 7E00              MOV     R6,#00H
0267 EF                MOV     A,R7
0268 6440              XRL     A,#040H
026A 4E                ORL     A,R6
026B 7004              JNZ     ?C0034
026D 7F01              MOV     R7,#01H
026F 8002              SJMP    ?C0035
0271         ?C0034:
0271 7F00              MOV     R7,#00H
0273         ?C0035:
0273 EF                MOV     A,R7
0274 6003              JZ      ?C0016
                                           ; SOURCE LINE # 374
                                           ; SOURCE LINE # 375
0276 120000      R     LCALL   RTC_1_EveryYearHandler
                                           ; SOURCE LINE # 376
0279         ?C0033:
                                           ; SOURCE LINE # 378
0279         ?C0016:
                                           ; SOURCE LINE # 381
0279 900000      E     MOV     DPTR,#RTC_1_alarmCfgMask
027C E0                MOVX    A,@DPTR
027D FF                MOV     R7,A
027E EF                MOV     A,R7
027F 5440              ANL     A,#040H
0281 FF                MOV     R7,A
0282 7E00              MOV     R6,#00H
0284 EF                MOV     A,R7
0285 6440              XRL     A,#040H
0287 4E                ORL     A,R6
0288 7004              JNZ     ?C0037
028A 7F01              MOV     R7,#01H
028C 8002              SJMP    ?C0038
028E         ?C0037:
028E 7F00              MOV     R7,#00H
0290         ?C0038:
0290 EF                MOV     A,R7
0291 602C              JZ      ?C0036
                                           ; SOURCE LINE # 383
                                           ; SOURCE LINE # 384
0293 900000      E     MOV     DPTR,#RTC_1_currentTimeDate+07H
0296 E0                MOVX    A,@DPTR
C51 COMPILER V9.51   RTC_1_INT                                                             05/01/2014 19:52:20 PAGE 26  

0297 FF                MOV     R7,A
0298 900000      E     MOV     DPTR,#RTC_1_alarmCfgTimeDate+07H
029B E0                MOVX    A,@DPTR
029C FE                MOV     R6,A
029D EE                MOV     A,R6
029E B50710            CJNE    A,AR7,?C0039
                                           ; SOURCE LINE # 385
                                           ; SOURCE LINE # 387
02A1 900000      E     MOV     DPTR,#RTC_1_alarmCurStatus
02A4 E0                MOVX    A,@DPTR
02A5 FF                MOV     R7,A
02A6 EF                MOV     A,R7
02A7 4440              ORL     A,#040H
02A9 FF                MOV     R7,A
02AA 900000      E     MOV     DPTR,#RTC_1_alarmCurStatus
02AD EF                MOV     A,R7
02AE F0                MOVX    @DPTR,A
                                           ; SOURCE LINE # 388
02AF 800E              SJMP    ?C0036
02B1         ?C0039:
                                           ; SOURCE LINE # 390
                                           ; SOURCE LINE # 392
02B1 900000      E     MOV     DPTR,#RTC_1_alarmCurStatus
02B4 E0                MOVX    A,@DPTR
02B5 FF                MOV     R7,A
02B6 EF                MOV     A,R7
02B7 54BF              ANL     A,#0BFH
02B9 FF                MOV     R7,A
02BA 900000      E     MOV     DPTR,#RTC_1_alarmCurStatus
02BD EF                MOV     A,R7
02BE F0                MOVX    @DPTR,A
                                           ; SOURCE LINE # 393
02BF         ?C0040:
                                           ; SOURCE LINE # 394
02BF         ?C0036:
                                           ; SOURCE LINE # 397
02BF 900000      E     MOV     DPTR,#RTC_1_currentTimeDate+07H
02C2 E0                MOVX    A,@DPTR
02C3 FF                MOV     R7,A
02C4 900000      E     MOV     DPTR,#RTC_1_dstTimeDateStop+04H
02C7 E0                MOVX    A,@DPTR
02C8 FE                MOV     R6,A
02C9 EE                MOV     A,R6
02CA B50710            CJNE    A,AR7,?C0041
                                           ; SOURCE LINE # 398
                                           ; SOURCE LINE # 399
02CD 900000      E     MOV     DPTR,#RTC_1_dstStopStatus
02D0 E0                MOVX    A,@DPTR
02D1 FF                MOV     R7,A
02D2 EF                MOV     A,R7
02D3 4404              ORL     A,#04H
02D5 FF                MOV     R7,A
02D6 900000      E     MOV     DPTR,#RTC_1_dstStopStatus
02D9 EF                MOV     A,R7
02DA F0                MOVX    @DPTR,A
                                           ; SOURCE LINE # 400
02DB 800E              SJMP    ?C0042
02DD         ?C0041:
                                           ; SOURCE LINE # 402
                                           ; SOURCE LINE # 403
02DD 900000      E     MOV     DPTR,#RTC_1_dstStopStatus
02E0 E0                MOVX    A,@DPTR
C51 COMPILER V9.51   RTC_1_INT                                                             05/01/2014 19:52:20 PAGE 27  

02E1 FF                MOV     R7,A
02E2 EF                MOV     A,R7
02E3 54FB              ANL     A,#0FBH
02E5 FF                MOV     R7,A
02E6 900000      E     MOV     DPTR,#RTC_1_dstStopStatus
02E9 EF                MOV     A,R7
02EA F0                MOVX    @DPTR,A
                                           ; SOURCE LINE # 404
02EB         ?C0042:
                                           ; SOURCE LINE # 406
02EB 900000      E     MOV     DPTR,#RTC_1_currentTimeDate+07H
02EE E0                MOVX    A,@DPTR
02EF FF                MOV     R7,A
02F0 900000      E     MOV     DPTR,#RTC_1_dstTimeDateStart+04H
02F3 E0                MOVX    A,@DPTR
02F4 FE                MOV     R6,A
02F5 EE                MOV     A,R6
02F6 B50710            CJNE    A,AR7,?C0043
                                           ; SOURCE LINE # 407
                                           ; SOURCE LINE # 408
02F9 900000      E     MOV     DPTR,#RTC_1_dstStartStatus
02FC E0                MOVX    A,@DPTR
02FD FF                MOV     R7,A
02FE EF                MOV     A,R7
02FF 4404              ORL     A,#04H
0301 FF                MOV     R7,A
0302 900000      E     MOV     DPTR,#RTC_1_dstStartStatus
0305 EF                MOV     A,R7
0306 F0                MOVX    @DPTR,A
                                           ; SOURCE LINE # 409
0307 800E              SJMP    ?C0044
0309         ?C0043:
                                           ; SOURCE LINE # 411
                                           ; SOURCE LINE # 412
0309 900000      E     MOV     DPTR,#RTC_1_dstStartStatus
030C E0                MOVX    A,@DPTR
030D FF                MOV     R7,A
030E EF                MOV     A,R7
030F 54FB              ANL     A,#0FBH
0311 FF                MOV     R7,A
0312 900000      E     MOV     DPTR,#RTC_1_dstStartStatus
0315 EF                MOV     A,R7
0316 F0                MOVX    @DPTR,A
                                           ; SOURCE LINE # 413
0317         ?C0044:
                                           ; SOURCE LINE # 417
0317 900000      E     MOV     DPTR,#RTC_1_alarmCfgMask
031A E0                MOVX    A,@DPTR
031B FF                MOV     R7,A
031C 900000      R     MOV     DPTR,#RTC_1_tmp
031F EF                MOV     A,R7
0320 F0                MOVX    @DPTR,A
0321         ?C0047:
                                           ; SOURCE LINE # 420
0321 900000      R     MOV     DPTR,#RTC_1_tmp
0324 E0                MOVX    A,@DPTR
0325 FF                MOV     R7,A
0326 EF                MOV     A,R7
0327 6032              JZ      ?C0046
0329 900000      R     MOV     DPTR,#RTC_1_tmp
032C E0                MOVX    A,@DPTR
032D FF                MOV     R7,A
C51 COMPILER V9.51   RTC_1_INT                                                             05/01/2014 19:52:20 PAGE 28  

032E 900000      E     MOV     DPTR,#RTC_1_alarmCurStatus
0331 E0                MOVX    A,@DPTR
0332 FE                MOV     R6,A
0333 EE                MOV     A,R6
0334 5F                ANL     A,R7
0335 FF                MOV     R7,A
0336 900000      R     MOV     DPTR,#RTC_1_tmp
0339 E0                MOVX    A,@DPTR
033A FE                MOV     R6,A
033B EF                MOV     A,R7
033C B50604            CJNE    A,AR6,?C0049
033F 7F01              MOV     R7,#01H
0341 8002              SJMP    ?C0050
0343         ?C0049:
0343 7F00              MOV     R7,#00H
0345         ?C0050:
0345 EF                MOV     A,R7
0346 6013              JZ      ?C0046
0348 900000      E     MOV     DPTR,#RTC_1_statusDateTime
034B E0                MOVX    A,@DPTR
034C FF                MOV     R7,A
034D EF                MOV     A,R7
034E 4408              ORL     A,#08H
0350 FF                MOV     R7,A
0351 900000      E     MOV     DPTR,#RTC_1_statusDateTime
0354 EF                MOV     A,R7
0355 F0                MOVX    @DPTR,A
0356 900000      E     MOV     DPTR,#RTC_1_alarmCurStatus
0359 E4                CLR     A
035A F0                MOVX    @DPTR,A
035B         ?C0048:
035B         ?C0045:
035B         ?C0046:
                                           ; SOURCE LINE # 423
035B 900000      E     MOV     DPTR,#RTC_1_intervalCfgMask
035E E0                MOVX    A,@DPTR
035F FF                MOV     R7,A
0360 EF                MOV     A,R7
0361 5420              ANL     A,#020H
0363 FF                MOV     R7,A
0364 7E00              MOV     R6,#00H
0366 EF                MOV     A,R7
0367 6420              XRL     A,#020H
0369 4E                ORL     A,R6
036A 7004              JNZ     ?C0052
036C 7F01              MOV     R7,#01H
036E 8002              SJMP    ?C0053
0370         ?C0052:
0370 7F00              MOV     R7,#00H
0372         ?C0053:
0372 EF                MOV     A,R7
0373 6003              JZ      ?C0012
                                           ; SOURCE LINE # 425
                                           ; SOURCE LINE # 426
0375 120000      R     LCALL   RTC_1_EveryMonthHandler
                                           ; SOURCE LINE # 427
0378         ?C0051:
                                           ; SOURCE LINE # 428
0378         ?C0012:
                                           ; SOURCE LINE # 431
0378 900000      E     MOV     DPTR,#RTC_1_alarmCfgMask
037B E0                MOVX    A,@DPTR
C51 COMPILER V9.51   RTC_1_INT                                                             05/01/2014 19:52:20 PAGE 29  

037C FF                MOV     R7,A
037D EF                MOV     A,R7
037E 5408              ANL     A,#08H
0380 FF                MOV     R7,A
0381 7E00              MOV     R6,#00H
0383 EF                MOV     A,R7
0384 6408              XRL     A,#08H
0386 4E                ORL     A,R6
0387 7004              JNZ     ?C0055
0389 7F01              MOV     R7,#01H
038B 8002              SJMP    ?C0056
038D         ?C0055:
038D 7F00              MOV     R7,#00H
038F         ?C0056:
038F EF                MOV     A,R7
0390 602C              JZ      ?C0054
                                           ; SOURCE LINE # 433
                                           ; SOURCE LINE # 434
0392 900000      E     MOV     DPTR,#RTC_1_currentTimeDate+03H
0395 E0                MOVX    A,@DPTR
0396 FF                MOV     R7,A
0397 900000      E     MOV     DPTR,#RTC_1_alarmCfgTimeDate+03H
039A E0                MOVX    A,@DPTR
039B FE                MOV     R6,A
039C EE                MOV     A,R6
039D B50710            CJNE    A,AR7,?C0057
                                           ; SOURCE LINE # 435
                                           ; SOURCE LINE # 437
03A0 900000      E     MOV     DPTR,#RTC_1_alarmCurStatus
03A3 E0                MOVX    A,@DPTR
03A4 FF                MOV     R7,A
03A5 EF                MOV     A,R7
03A6 4408              ORL     A,#08H
03A8 FF                MOV     R7,A
03A9 900000      E     MOV     DPTR,#RTC_1_alarmCurStatus
03AC EF                MOV     A,R7
03AD F0                MOVX    @DPTR,A
                                           ; SOURCE LINE # 438
03AE 800E              SJMP    ?C0054
03B0         ?C0057:
                                           ; SOURCE LINE # 440
                                           ; SOURCE LINE # 442
03B0 900000      E     MOV     DPTR,#RTC_1_alarmCurStatus
03B3 E0                MOVX    A,@DPTR
03B4 FF                MOV     R7,A
03B5 EF                MOV     A,R7
03B6 54F7              ANL     A,#0F7H
03B8 FF                MOV     R7,A
03B9 900000      E     MOV     DPTR,#RTC_1_alarmCurStatus
03BC EF                MOV     A,R7
03BD F0                MOVX    @DPTR,A
                                           ; SOURCE LINE # 443
03BE         ?C0058:
                                           ; SOURCE LINE # 444
03BE         ?C0054:
                                           ; SOURCE LINE # 447
03BE 900000      E     MOV     DPTR,#RTC_1_alarmCfgMask
03C1 E0                MOVX    A,@DPTR
03C2 FF                MOV     R7,A
03C3 EF                MOV     A,R7
03C4 5420              ANL     A,#020H
03C6 FF                MOV     R7,A
C51 COMPILER V9.51   RTC_1_INT                                                             05/01/2014 19:52:20 PAGE 30  

03C7 7E00              MOV     R6,#00H
03C9 EF                MOV     A,R7
03CA 6420              XRL     A,#020H
03CC 4E                ORL     A,R6
03CD 7004              JNZ     ?C0060
03CF 7F01              MOV     R7,#01H
03D1 8002              SJMP    ?C0061
03D3         ?C0060:
03D3 7F00              MOV     R7,#00H
03D5         ?C0061:
03D5 EF                MOV     A,R7
03D6 6036              JZ      ?C0059
                                           ; SOURCE LINE # 449
                                           ; SOURCE LINE # 450
03D8 900000      E     MOV     DPTR,#RTC_1_currentTimeDate+05H
03DB E0                MOVX    A,@DPTR
03DC FE                MOV     R6,A
03DD A3                INC     DPTR
03DE E0                MOVX    A,@DPTR
03DF FF                MOV     R7,A
03E0 900000      E     MOV     DPTR,#RTC_1_alarmCfgTimeDate+05H
03E3 E0                MOVX    A,@DPTR
03E4 FC                MOV     R4,A
03E5 A3                INC     DPTR
03E6 E0                MOVX    A,@DPTR
03E7 FD                MOV     R5,A
03E8 ED                MOV     A,R5
03E9 B50714            CJNE    A,AR7,?C0062
03EC EC                MOV     A,R4
03ED B50610            CJNE    A,AR6,?C0062
                                           ; SOURCE LINE # 451
                                           ; SOURCE LINE # 453
03F0 900000      E     MOV     DPTR,#RTC_1_alarmCurStatus
03F3 E0                MOVX    A,@DPTR
03F4 FF                MOV     R7,A
03F5 EF                MOV     A,R7
03F6 4420              ORL     A,#020H
03F8 FF                MOV     R7,A
03F9 900000      E     MOV     DPTR,#RTC_1_alarmCurStatus
03FC EF                MOV     A,R7
03FD F0                MOVX    @DPTR,A
                                           ; SOURCE LINE # 454
03FE 800E              SJMP    ?C0059
0400         ?C0062:
                                           ; SOURCE LINE # 456
                                           ; SOURCE LINE # 458
0400 900000      E     MOV     DPTR,#RTC_1_alarmCurStatus
0403 E0                MOVX    A,@DPTR
0404 FF                MOV     R7,A
0405 EF                MOV     A,R7
0406 54DF              ANL     A,#0DFH
0408 FF                MOV     R7,A
0409 900000      E     MOV     DPTR,#RTC_1_alarmCurStatus
040C EF                MOV     A,R7
040D F0                MOVX    @DPTR,A
                                           ; SOURCE LINE # 459
040E         ?C0063:
                                           ; SOURCE LINE # 460
040E         ?C0059:
                                           ; SOURCE LINE # 463
040E 900000      E     MOV     DPTR,#RTC_1_alarmCfgMask
0411 E0                MOVX    A,@DPTR
C51 COMPILER V9.51   RTC_1_INT                                                             05/01/2014 19:52:20 PAGE 31  

0412 FF                MOV     R7,A
0413 EF                MOV     A,R7
0414 5410              ANL     A,#010H
0416 FF                MOV     R7,A
0417 7E00              MOV     R6,#00H
0419 EF                MOV     A,R7
041A 6410              XRL     A,#010H
041C 4E                ORL     A,R6
041D 7004              JNZ     ?C0065
041F 7F01              MOV     R7,#01H
0421 8002              SJMP    ?C0066
0423         ?C0065:
0423 7F00              MOV     R7,#00H
0425         ?C0066:
0425 EF                MOV     A,R7
0426 602C              JZ      ?C0064
                                           ; SOURCE LINE # 465
                                           ; SOURCE LINE # 466
0428 900000      E     MOV     DPTR,#RTC_1_currentTimeDate+04H
042B E0                MOVX    A,@DPTR
042C FF                MOV     R7,A
042D 900000      E     MOV     DPTR,#RTC_1_alarmCfgTimeDate+04H
0430 E0                MOVX    A,@DPTR
0431 FE                MOV     R6,A
0432 EE                MOV     A,R6
0433 B50710            CJNE    A,AR7,?C0067
                                           ; SOURCE LINE # 467
                                           ; SOURCE LINE # 469
0436 900000      E     MOV     DPTR,#RTC_1_alarmCurStatus
0439 E0                MOVX    A,@DPTR
043A FF                MOV     R7,A
043B EF                MOV     A,R7
043C 4410              ORL     A,#010H
043E FF                MOV     R7,A
043F 900000      E     MOV     DPTR,#RTC_1_alarmCurStatus
0442 EF                MOV     A,R7
0443 F0                MOVX    @DPTR,A
                                           ; SOURCE LINE # 470
0444 800E              SJMP    ?C0064
0446         ?C0067:
                                           ; SOURCE LINE # 472
                                           ; SOURCE LINE # 474
0446 900000      E     MOV     DPTR,#RTC_1_alarmCurStatus
0449 E0                MOVX    A,@DPTR
044A FF                MOV     R7,A
044B EF                MOV     A,R7
044C 54EF              ANL     A,#0EFH
044E FF                MOV     R7,A
044F 900000      E     MOV     DPTR,#RTC_1_alarmCurStatus
0452 EF                MOV     A,R7
0453 F0                MOVX    @DPTR,A
                                           ; SOURCE LINE # 475
0454         ?C0068:
                                           ; SOURCE LINE # 476
0454         ?C0064:
                                           ; SOURCE LINE # 479
0454 900000      E     MOV     DPTR,#RTC_1_currentTimeDate+04H
0457 E0                MOVX    A,@DPTR
0458 FF                MOV     R7,A
0459 900000      E     MOV     DPTR,#RTC_1_dstTimeDateStop+03H
045C E0                MOVX    A,@DPTR
045D FE                MOV     R6,A
C51 COMPILER V9.51   RTC_1_INT                                                             05/01/2014 19:52:20 PAGE 32  

045E EE                MOV     A,R6
045F B50710            CJNE    A,AR7,?C0069
                                           ; SOURCE LINE # 480
                                           ; SOURCE LINE # 481
0462 900000      E     MOV     DPTR,#RTC_1_dstStopStatus
0465 E0                MOVX    A,@DPTR
0466 FF                MOV     R7,A
0467 EF                MOV     A,R7
0468 4402              ORL     A,#02H
046A FF                MOV     R7,A
046B 900000      E     MOV     DPTR,#RTC_1_dstStopStatus
046E EF                MOV     A,R7
046F F0                MOVX    @DPTR,A
                                           ; SOURCE LINE # 482
0470 800E              SJMP    ?C0070
0472         ?C0069:
                                           ; SOURCE LINE # 484
                                           ; SOURCE LINE # 485
0472 900000      E     MOV     DPTR,#RTC_1_dstStopStatus
0475 E0                MOVX    A,@DPTR
0476 FF                MOV     R7,A
0477 EF                MOV     A,R7
0478 54FD              ANL     A,#0FDH
047A FF                MOV     R7,A
047B 900000      E     MOV     DPTR,#RTC_1_dstStopStatus
047E EF                MOV     A,R7
047F F0                MOVX    @DPTR,A
                                           ; SOURCE LINE # 486
0480         ?C0070:
                                           ; SOURCE LINE # 488
0480 900000      E     MOV     DPTR,#RTC_1_currentTimeDate+04H
0483 E0                MOVX    A,@DPTR
0484 FF                MOV     R7,A
0485 900000      E     MOV     DPTR,#RTC_1_dstTimeDateStart+03H
0488 E0                MOVX    A,@DPTR
0489 FE                MOV     R6,A
048A EE                MOV     A,R6
048B B50710            CJNE    A,AR7,?C0071
                                           ; SOURCE LINE # 489
                                           ; SOURCE LINE # 490
048E 900000      E     MOV     DPTR,#RTC_1_dstStartStatus
0491 E0                MOVX    A,@DPTR
0492 FF                MOV     R7,A
0493 EF                MOV     A,R7
0494 4402              ORL     A,#02H
0496 FF                MOV     R7,A
0497 900000      E     MOV     DPTR,#RTC_1_dstStartStatus
049A EF                MOV     A,R7
049B F0                MOVX    @DPTR,A
                                           ; SOURCE LINE # 491
049C 800E              SJMP    ?C0072
049E         ?C0071:
                                           ; SOURCE LINE # 493
                                           ; SOURCE LINE # 494
049E 900000      E     MOV     DPTR,#RTC_1_dstStartStatus
04A1 E0                MOVX    A,@DPTR
04A2 FF                MOV     R7,A
04A3 EF                MOV     A,R7
04A4 54FD              ANL     A,#0FDH
04A6 FF                MOV     R7,A
04A7 900000      E     MOV     DPTR,#RTC_1_dstStartStatus
04AA EF                MOV     A,R7
C51 COMPILER V9.51   RTC_1_INT                                                             05/01/2014 19:52:20 PAGE 33  

04AB F0                MOVX    @DPTR,A
                                           ; SOURCE LINE # 495
04AC         ?C0072:
                                           ; SOURCE LINE # 499
04AC 900000      E     MOV     DPTR,#RTC_1_alarmCfgMask
04AF E0                MOVX    A,@DPTR
04B0 FF                MOV     R7,A
04B1 900000      R     MOV     DPTR,#RTC_1_tmp
04B4 EF                MOV     A,R7
04B5 F0                MOVX    @DPTR,A
04B6         ?C0075:
                                           ; SOURCE LINE # 502
04B6 900000      R     MOV     DPTR,#RTC_1_tmp
04B9 E0                MOVX    A,@DPTR
04BA FF                MOV     R7,A
04BB EF                MOV     A,R7
04BC 6032              JZ      ?C0074
04BE 900000      R     MOV     DPTR,#RTC_1_tmp
04C1 E0                MOVX    A,@DPTR
04C2 FF                MOV     R7,A
04C3 900000      E     MOV     DPTR,#RTC_1_alarmCurStatus
04C6 E0                MOVX    A,@DPTR
04C7 FE                MOV     R6,A
04C8 EE                MOV     A,R6
04C9 5F                ANL     A,R7
04CA FF                MOV     R7,A
04CB 900000      R     MOV     DPTR,#RTC_1_tmp
04CE E0                MOVX    A,@DPTR
04CF FE                MOV     R6,A
04D0 EF                MOV     A,R7
04D1 B50604            CJNE    A,AR6,?C0077
04D4 7F01              MOV     R7,#01H
04D6 8002              SJMP    ?C0078
04D8         ?C0077:
04D8 7F00              MOV     R7,#00H
04DA         ?C0078:
04DA EF                MOV     A,R7
04DB 6013              JZ      ?C0074
04DD 900000      E     MOV     DPTR,#RTC_1_statusDateTime
04E0 E0                MOVX    A,@DPTR
04E1 FF                MOV     R7,A
04E2 EF                MOV     A,R7
04E3 4408              ORL     A,#08H
04E5 FF                MOV     R7,A
04E6 900000      E     MOV     DPTR,#RTC_1_statusDateTime
04E9 EF                MOV     A,R7
04EA F0                MOVX    @DPTR,A
04EB 900000      E     MOV     DPTR,#RTC_1_alarmCurStatus
04EE E4                CLR     A
04EF F0                MOVX    @DPTR,A
04F0         ?C0076:
04F0         ?C0073:
04F0         ?C0074:
                                           ; SOURCE LINE # 505
04F0 900000      E     MOV     DPTR,#RTC_1_intervalCfgMask
04F3 E0                MOVX    A,@DPTR
04F4 FF                MOV     R7,A
04F5 EF                MOV     A,R7
04F6 5408              ANL     A,#08H
04F8 FF                MOV     R7,A
04F9 7E00              MOV     R6,#00H
04FB EF                MOV     A,R7
C51 COMPILER V9.51   RTC_1_INT                                                             05/01/2014 19:52:20 PAGE 34  

04FC 6408              XRL     A,#08H
04FE 4E                ORL     A,R6
04FF 7004              JNZ     ?C0080
0501 7F01              MOV     R7,#01H
0503 8002              SJMP    ?C0081
0505         ?C0080:
0505 7F00              MOV     R7,#00H
0507         ?C0081:
0507 EF                MOV     A,R7
0508 6003              JZ      ?C0079
                                           ; SOURCE LINE # 507
                                           ; SOURCE LINE # 508
050A 120000      R     LCALL   RTC_1_EveryDayHandler
                                           ; SOURCE LINE # 509
050D         ?C0079:
                                           ; SOURCE LINE # 511
050D 900000      E     MOV     DPTR,#RTC_1_currentTimeDate+03H
0510 E0                MOVX    A,@DPTR
0511 FF                MOV     R7,A
0512 EF                MOV     A,R7
0513 B4011D            CJNE    A,#01H,?C0010
                                           ; SOURCE LINE # 512
                                           ; SOURCE LINE # 514
0516 900000      E     MOV     DPTR,#RTC_1_intervalCfgMask
0519 E0                MOVX    A,@DPTR
051A FF                MOV     R7,A
051B EF                MOV     A,R7
051C 5410              ANL     A,#010H
051E FF                MOV     R7,A
051F 7E00              MOV     R6,#00H
0521 EF                MOV     A,R7
0522 6410              XRL     A,#010H
0524 4E                ORL     A,R6
0525 7004              JNZ     ?C0084
0527 7F01              MOV     R7,#01H
0529 8002              SJMP    ?C0085
052B         ?C0084:
052B 7F00              MOV     R7,#00H
052D         ?C0085:
052D EF                MOV     A,R7
052E 6003              JZ      ?C0010
                                           ; SOURCE LINE # 516
                                           ; SOURCE LINE # 517
0530 120000      R     LCALL   RTC_1_EveryWeekHandler
                                           ; SOURCE LINE # 518
0533         ?C0083:
                                           ; SOURCE LINE # 519
0533         ?C0082:
                                           ; SOURCE LINE # 521
0533         ?C0010:
                                           ; SOURCE LINE # 524
0533 900000      E     MOV     DPTR,#RTC_1_currentTimeDate+02H
0536 E0                MOVX    A,@DPTR
0537 FF                MOV     R7,A
0538 EF                MOV     A,R7
0539 C3                CLR     C
053A 940C              SUBB    A,#0CH
053C 5010              JNC     ?C0086
                                           ; SOURCE LINE # 525
                                           ; SOURCE LINE # 527
053E 900000      E     MOV     DPTR,#RTC_1_statusDateTime
0541 E0                MOVX    A,@DPTR
C51 COMPILER V9.51   RTC_1_INT                                                             05/01/2014 19:52:20 PAGE 35  

0542 FF                MOV     R7,A
0543 EF                MOV     A,R7
0544 54FB              ANL     A,#0FBH
0546 FF                MOV     R7,A
0547 900000      E     MOV     DPTR,#RTC_1_statusDateTime
054A EF                MOV     A,R7
054B F0                MOVX    @DPTR,A
                                           ; SOURCE LINE # 528
054C 800E              SJMP    ?C0087
054E         ?C0086:
                                           ; SOURCE LINE # 530
                                           ; SOURCE LINE # 532
054E 900000      E     MOV     DPTR,#RTC_1_statusDateTime
0551 E0                MOVX    A,@DPTR
0552 FF                MOV     R7,A
0553 EF                MOV     A,R7
0554 4404              ORL     A,#04H
0556 FF                MOV     R7,A
0557 900000      E     MOV     DPTR,#RTC_1_statusDateTime
055A EF                MOV     A,R7
055B F0                MOVX    @DPTR,A
                                           ; SOURCE LINE # 533
055C         ?C0087:
                                           ; SOURCE LINE # 536
055C 900000      E     MOV     DPTR,#RTC_1_currentTimeDate+02H
055F E0                MOVX    A,@DPTR
0560 FF                MOV     R7,A
0561 900000      E     MOV     DPTR,#RTC_1_dstTimeDateStop
0564 E0                MOVX    A,@DPTR
0565 FE                MOV     R6,A
0566 EE                MOV     A,R6
0567 B50710            CJNE    A,AR7,?C0088
                                           ; SOURCE LINE # 537
                                           ; SOURCE LINE # 538
056A 900000      E     MOV     DPTR,#RTC_1_dstStopStatus
056D E0                MOVX    A,@DPTR
056E FF                MOV     R7,A
056F EF                MOV     A,R7
0570 4401              ORL     A,#01H
0572 FF                MOV     R7,A
0573 900000      E     MOV     DPTR,#RTC_1_dstStopStatus
0576 EF                MOV     A,R7
0577 F0                MOVX    @DPTR,A
                                           ; SOURCE LINE # 539
0578 800E              SJMP    ?C0089
057A         ?C0088:
                                           ; SOURCE LINE # 541
                                           ; SOURCE LINE # 542
057A 900000      E     MOV     DPTR,#RTC_1_dstStopStatus
057D E0                MOVX    A,@DPTR
057E FF                MOV     R7,A
057F EF                MOV     A,R7
0580 54FE              ANL     A,#0FEH
0582 FF                MOV     R7,A
0583 900000      E     MOV     DPTR,#RTC_1_dstStopStatus
0586 EF                MOV     A,R7
0587 F0                MOVX    @DPTR,A
                                           ; SOURCE LINE # 543
0588         ?C0089:
                                           ; SOURCE LINE # 545
0588 900000      E     MOV     DPTR,#RTC_1_currentTimeDate+02H
058B E0                MOVX    A,@DPTR
C51 COMPILER V9.51   RTC_1_INT                                                             05/01/2014 19:52:20 PAGE 36  

058C FF                MOV     R7,A
058D 900000      E     MOV     DPTR,#RTC_1_dstTimeDateStart
0590 E0                MOVX    A,@DPTR
0591 FE                MOV     R6,A
0592 EE                MOV     A,R6
0593 B50710            CJNE    A,AR7,?C0090
                                           ; SOURCE LINE # 546
                                           ; SOURCE LINE # 547
0596 900000      E     MOV     DPTR,#RTC_1_dstStartStatus
0599 E0                MOVX    A,@DPTR
059A FF                MOV     R7,A
059B EF                MOV     A,R7
059C 4401              ORL     A,#01H
059E FF                MOV     R7,A
059F 900000      E     MOV     DPTR,#RTC_1_dstStartStatus
05A2 EF                MOV     A,R7
05A3 F0                MOVX    @DPTR,A
                                           ; SOURCE LINE # 548
05A4 800E              SJMP    ?C0091
05A6         ?C0090:
                                           ; SOURCE LINE # 550
                                           ; SOURCE LINE # 551
05A6 900000      E     MOV     DPTR,#RTC_1_dstStartStatus
05A9 E0                MOVX    A,@DPTR
05AA FF                MOV     R7,A
05AB EF                MOV     A,R7
05AC 54FE              ANL     A,#0FEH
05AE FF                MOV     R7,A
05AF 900000      E     MOV     DPTR,#RTC_1_dstStartStatus
05B2 EF                MOV     A,R7
05B3 F0                MOVX    @DPTR,A
                                           ; SOURCE LINE # 552
05B4         ?C0091:
                                           ; SOURCE LINE # 555
05B4 900000      E     MOV     DPTR,#RTC_1_dstModeType
05B7 E0                MOVX    A,@DPTR
05B8 FF                MOV     R7,A
05B9 EF                MOV     A,R7
05BA 5401              ANL     A,#01H
05BC FF                MOV     R7,A
05BD 7E00              MOV     R6,#00H
05BF EF                MOV     A,R7
05C0 6401              XRL     A,#01H
05C2 4E                ORL     A,R6
05C3 7004              JNZ     ?C0093
05C5 7F01              MOV     R7,#01H
05C7 8002              SJMP    ?C0094
05C9         ?C0093:
05C9 7F00              MOV     R7,#00H
05CB         ?C0094:
05CB EF                MOV     A,R7
05CC 7003              JNZ     $ + 5H
05CE 020000      R     LJMP    ?C0092
                                           ; SOURCE LINE # 556
                                           ; SOURCE LINE # 557
05D1 900000      E     MOV     DPTR,#RTC_1_statusDateTime
05D4 E0                MOVX    A,@DPTR
05D5 FF                MOV     R7,A
05D6 EF                MOV     A,R7
05D7 5401              ANL     A,#01H
05D9 FF                MOV     R7,A
05DA 7E00              MOV     R6,#00H
C51 COMPILER V9.51   RTC_1_INT                                                             05/01/2014 19:52:20 PAGE 37  

05DC EF                MOV     A,R7
05DD 6401              XRL     A,#01H
05DF 4E                ORL     A,R6
05E0 7004              JNZ     ?C0096
05E2 7F01              MOV     R7,#01H
05E4 8002              SJMP    ?C0097
05E6         ?C0096:
05E6 7F00              MOV     R7,#00H
05E8         ?C0097:
05E8 EF                MOV     A,R7
05E9 7003              JNZ     $ + 5H
05EB 020000      R     LJMP    ?C0095
                                           ; SOURCE LINE # 558
                                           ; SOURCE LINE # 559
05EE 900000      E     MOV     DPTR,#RTC_1_dstStopStatus
05F1 E0                MOVX    A,@DPTR
05F2 FF                MOV     R7,A
05F3 EF                MOV     A,R7
05F4 5407              ANL     A,#07H
05F6 FF                MOV     R7,A
05F7 7E00              MOV     R6,#00H
05F9 EF                MOV     A,R7
05FA 6407              XRL     A,#07H
05FC 4E                ORL     A,R6
05FD 7004              JNZ     ?C0099
05FF 7F01              MOV     R7,#01H
0601 8002              SJMP    ?C0100
0603         ?C0099:
0603 7F00              MOV     R7,#00H
0605         ?C0100:
0605 EF                MOV     A,R7
0606 7003              JNZ     $ + 5H
0608 020000      R     LJMP    ?C0116
                                           ; SOURCE LINE # 561
                                           ; SOURCE LINE # 565
060B 900000      E     MOV     DPTR,#RTC_1_currentTimeDate+01H
060E E0                MOVX    A,@DPTR
060F FB                MOV     R3,A
0610 900000      E     MOV     DPTR,#RTC_1_dstOffsetMin
0613 E0                MOVX    A,@DPTR
0614 FF                MOV     R7,A
0615 7E00              MOV     R6,#00H
0617 7C00              MOV     R4,#00H
0619 7D3C              MOV     R5,#03CH
061B 120000      E     LCALL   ?C?UIDIV
061E AF05              MOV     R7,AR5
0620 C3                CLR     C
0621 EB                MOV     A,R3
0622 9F                SUBB    A,R7
0623 FF                MOV     R7,A
0624 900000      E     MOV     DPTR,#RTC_1_currentTimeDate+01H
0627 EF                MOV     A,R7
0628 F0                MOVX    @DPTR,A
                                           ; SOURCE LINE # 569
0629 900000      E     MOV     DPTR,#RTC_1_currentTimeDate+01H
062C E0                MOVX    A,@DPTR
062D FF                MOV     R7,A
062E EF                MOV     A,R7
062F D3                SETB    C
0630 943B              SUBB    A,#03BH
0632 4018              JC      ?C0101
                                           ; SOURCE LINE # 570
C51 COMPILER V9.51   RTC_1_INT                                                             05/01/2014 19:52:20 PAGE 38  

                                           ; SOURCE LINE # 576
0634 900000      E     MOV     DPTR,#RTC_1_currentTimeDate+01H
0637 E0                MOVX    A,@DPTR
0638 FF                MOV     R7,A
0639 EF                MOV     A,R7
063A F4                CPL     A
063B FF                MOV     R7,A
063C C3                CLR     C
063D 743B              MOV     A,#03BH
063F 9F                SUBB    A,R7
0640 FF                MOV     R7,A
0641 900000      E     MOV     DPTR,#RTC_1_currentTimeDate+01H
0644 EF                MOV     A,R7
0645 F0                MOVX    @DPTR,A
                                           ; SOURCE LINE # 578
0646 900000      E     MOV     DPTR,#RTC_1_currentTimeDate+02H
0649 E0                MOVX    A,@DPTR
064A 14                DEC     A
064B F0                MOVX    @DPTR,A
                                           ; SOURCE LINE # 579
064C         ?C0101:
                                           ; SOURCE LINE # 581
064C 900000      E     MOV     DPTR,#RTC_1_currentTimeDate+02H
064F E0                MOVX    A,@DPTR
0650 FB                MOV     R3,A
0651 900000      E     MOV     DPTR,#RTC_1_dstOffsetMin
0654 E0                MOVX    A,@DPTR
0655 FF                MOV     R7,A
0656 7E00              MOV     R6,#00H
0658 7C00              MOV     R4,#00H
065A 7D3C              MOV     R5,#03CH
065C 120000      E     LCALL   ?C?UIDIV
065F C3                CLR     C
0660 EB                MOV     A,R3
0661 9F                SUBB    A,R7
0662 FF                MOV     R7,A
0663 900000      E     MOV     DPTR,#RTC_1_currentTimeDate+02H
0666 EF                MOV     A,R7
0667 F0                MOVX    @DPTR,A
                                           ; SOURCE LINE # 586
0668 900000      E     MOV     DPTR,#RTC_1_currentTimeDate+02H
066B E0                MOVX    A,@DPTR
066C FF                MOV     R7,A
066D EF                MOV     A,R7
066E D3                SETB    C
066F 9417              SUBB    A,#017H
0671 5003              JNC     $ + 5H
0673 020000      R     LJMP    ?C0102
                                           ; SOURCE LINE # 587
                                           ; SOURCE LINE # 593
0676 900000      E     MOV     DPTR,#RTC_1_currentTimeDate+02H
0679 E0                MOVX    A,@DPTR
067A FF                MOV     R7,A
067B EF                MOV     A,R7
067C F4                CPL     A
067D FF                MOV     R7,A
067E C3                CLR     C
067F 7417              MOV     A,#017H
0681 9F                SUBB    A,R7
0682 FF                MOV     R7,A
0683 900000      E     MOV     DPTR,#RTC_1_currentTimeDate+02H
0686 EF                MOV     A,R7
C51 COMPILER V9.51   RTC_1_INT                                                             05/01/2014 19:52:20 PAGE 39  

0687 F0                MOVX    @DPTR,A
                                           ; SOURCE LINE # 596
0688 900000      E     MOV     DPTR,#RTC_1_currentTimeDate+02H
068B E0                MOVX    A,@DPTR
068C FF                MOV     R7,A
068D EF                MOV     A,R7
068E C3                CLR     C
068F 940C              SUBB    A,#0CH
0691 5010              JNC     ?C0103
                                           ; SOURCE LINE # 597
                                           ; SOURCE LINE # 599
0693 900000      E     MOV     DPTR,#RTC_1_statusDateTime
0696 E0                MOVX    A,@DPTR
0697 FF                MOV     R7,A
0698 EF                MOV     A,R7
0699 54FB              ANL     A,#0FBH
069B FF                MOV     R7,A
069C 900000      E     MOV     DPTR,#RTC_1_statusDateTime
069F EF                MOV     A,R7
06A0 F0                MOVX    @DPTR,A
                                           ; SOURCE LINE # 600
06A1 800E              SJMP    ?C0104
06A3         ?C0103:
                                           ; SOURCE LINE # 602
                                           ; SOURCE LINE # 604
06A3 900000      E     MOV     DPTR,#RTC_1_statusDateTime
06A6 E0                MOVX    A,@DPTR
06A7 FF                MOV     R7,A
06A8 EF                MOV     A,R7
06A9 4404              ORL     A,#04H
06AB FF                MOV     R7,A
06AC 900000      E     MOV     DPTR,#RTC_1_statusDateTime
06AF EF                MOV     A,R7
06B0 F0                MOVX    @DPTR,A
                                           ; SOURCE LINE # 605
06B1         ?C0104:
                                           ; SOURCE LINE # 607
06B1 900000      E     MOV     DPTR,#RTC_1_currentTimeDate+04H
06B4 E0                MOVX    A,@DPTR
06B5 14                DEC     A
06B6 F0                MOVX    @DPTR,A
                                           ; SOURCE LINE # 608
06B7 900000      E     MOV     DPTR,#RTC_1_currentTimeDate+05H
06BA 74FF              MOV     A,#0FFH
06BC 75F0FF            MOV     B,#0FFH
06BF 120000      E     LCALL   ?C?IILDX
                                           ; SOURCE LINE # 609
06C2 900000      E     MOV     DPTR,#RTC_1_currentTimeDate+03H
06C5 E0                MOVX    A,@DPTR
06C6 14                DEC     A
06C7 F0                MOVX    @DPTR,A
                                           ; SOURCE LINE # 611
06C8 900000      E     MOV     DPTR,#RTC_1_currentTimeDate+03H
06CB E0                MOVX    A,@DPTR
06CC FF                MOV     R7,A
06CD EF                MOV     A,R7
06CE 7006              JNZ     ?C0105
                                           ; SOURCE LINE # 612
                                           ; SOURCE LINE # 613
06D0 900000      E     MOV     DPTR,#RTC_1_currentTimeDate+03H
06D3 7407              MOV     A,#07H
06D5 F0                MOVX    @DPTR,A
C51 COMPILER V9.51   RTC_1_INT                                                             05/01/2014 19:52:20 PAGE 40  

                                           ; SOURCE LINE # 614
06D6         ?C0105:
                                           ; SOURCE LINE # 616
06D6 900000      E     MOV     DPTR,#RTC_1_currentTimeDate+04H
06D9 E0                MOVX    A,@DPTR
06DA FF                MOV     R7,A
06DB EF                MOV     A,R7
06DC 6003              JZ      $ + 5H
06DE 020000      R     LJMP    ?C0106
                                           ; SOURCE LINE # 617
                                           ; SOURCE LINE # 618
06E1 900000      E     MOV     DPTR,#RTC_1_currentTimeDate+07H
06E4 E0                MOVX    A,@DPTR
06E5 14                DEC     A
06E6 F0                MOVX    @DPTR,A
                                           ; SOURCE LINE # 619
06E7 900000      E     MOV     DPTR,#RTC_1_currentTimeDate+07H
06EA E0                MOVX    A,@DPTR
06EB FF                MOV     R7,A
06EC EF                MOV     A,R7
06ED 6003              JZ      $ + 5H
06EF 020000      R     LJMP    ?C0107
                                           ; SOURCE LINE # 620
                                           ; SOURCE LINE # 621
06F2 900000      E     MOV     DPTR,#RTC_1_currentTimeDate+07H
06F5 740C              MOV     A,#0CH
06F7 F0                MOVX    @DPTR,A
                                           ; SOURCE LINE # 623
06F8 900000      E     MOV     DPTR,#RTC_1_currentTimeDate+07H
06FB E0                MOVX    A,@DPTR
06FC FF                MOV     R7,A
06FD EF                MOV     A,R7
06FE 900000      E     MOV     DPTR,#RTC_1_daysInMonths-01H
0701 93                MOVC    A,@A+DPTR
0702 FF                MOV     R7,A
0703 900000      E     MOV     DPTR,#RTC_1_currentTimeDate+04H
0706 EF                MOV     A,R7
0707 F0                MOVX    @DPTR,A
                                           ; SOURCE LINE # 626
0708 900000      E     MOV     DPTR,#RTC_1_currentTimeDate+08H
070B 74FF              MOV     A,#0FFH
070D 75F0FF            MOV     B,#0FFH
0710 120000      E     LCALL   ?C?IILDX
                                           ; SOURCE LINE # 628
0713 900000      E     MOV     DPTR,#RTC_1_currentTimeDate+08H
0716 E0                MOVX    A,@DPTR
0717 FE                MOV     R6,A
0718 A3                INC     DPTR
0719 E0                MOVX    A,@DPTR
071A FF                MOV     R7,A
071B 7C01              MOV     R4,#01H
071D 7D90              MOV     R5,#090H
071F 120000      E     LCALL   ?C?UIDIV
0722 ED                MOV     A,R5
0723 4C                ORL     A,R4
0724 6025              JZ      ?C0111
0726 900000      E     MOV     DPTR,#RTC_1_currentTimeDate+08H
0729 E0                MOVX    A,@DPTR
072A FE                MOV     R6,A
072B A3                INC     DPTR
072C E0                MOVX    A,@DPTR
072D FF                MOV     R7,A
C51 COMPILER V9.51   RTC_1_INT                                                             05/01/2014 19:52:20 PAGE 41  

072E 7E00              MOV     R6,#00H
0730 EF                MOV     A,R7
0731 5403              ANL     A,#03H
0733 FF                MOV     R7,A
0734 EF                MOV     A,R7
0735 4E                ORL     A,R6
0736 7017              JNZ     ?C0109
0738 900000      E     MOV     DPTR,#RTC_1_currentTimeDate+08H
073B E0                MOVX    A,@DPTR
073C FE                MOV     R6,A
073D A3                INC     DPTR
073E E0                MOVX    A,@DPTR
073F FF                MOV     R7,A
0740 7C00              MOV     R4,#00H
0742 7D64              MOV     R5,#064H
0744 120000      E     LCALL   ?C?UIDIV
0747 ED                MOV     A,R5
0748 4C                ORL     A,R4
0749 6004              JZ      ?C0109
074B         ?C0111:
074B 7F01              MOV     R7,#01H
074D 8002              SJMP    ?C0110
074F         ?C0109:
074F 7F00              MOV     R7,#00H
0751         ?C0110:
0751 EF                MOV     A,R7
0752 B4011A            CJNE    A,#01H,?C0108
                                           ; SOURCE LINE # 629
                                           ; SOURCE LINE # 631
0755 900000      E     MOV     DPTR,#RTC_1_statusDateTime
0758 E0                MOVX    A,@DPTR
0759 FF                MOV     R7,A
075A EF                MOV     A,R7
075B 4402              ORL     A,#02H
075D FF                MOV     R7,A
075E 900000      E     MOV     DPTR,#RTC_1_statusDateTime
0761 EF                MOV     A,R7
0762 F0                MOVX    @DPTR,A
                                           ; SOURCE LINE # 632
0763 900000      E     MOV     DPTR,#RTC_1_currentTimeDate+05H
0766 7401              MOV     A,#01H
0768 F0                MOVX    @DPTR,A
0769 A3                INC     DPTR
076A 746E              MOV     A,#06EH
076C F0                MOVX    @DPTR,A
                                           ; SOURCE LINE # 634
076D 8018              SJMP    ?C0112
076F         ?C0108:
                                           ; SOURCE LINE # 636
                                           ; SOURCE LINE # 637
076F 900000      E     MOV     DPTR,#RTC_1_statusDateTime
0772 E0                MOVX    A,@DPTR
0773 FF                MOV     R7,A
0774 EF                MOV     A,R7
0775 54FD              ANL     A,#0FDH
0777 FF                MOV     R7,A
0778 900000      E     MOV     DPTR,#RTC_1_statusDateTime
077B EF                MOV     A,R7
077C F0                MOVX    @DPTR,A
                                           ; SOURCE LINE # 638
077D 900000      E     MOV     DPTR,#RTC_1_currentTimeDate+05H
0780 7401              MOV     A,#01H
C51 COMPILER V9.51   RTC_1_INT                                                             05/01/2014 19:52:20 PAGE 42  

0782 F0                MOVX    @DPTR,A
0783 A3                INC     DPTR
0784 746D              MOV     A,#06DH
0786 F0                MOVX    @DPTR,A
                                           ; SOURCE LINE # 639
0787         ?C0112:
                                           ; SOURCE LINE # 640
0787 120000      R     LCALL   RTC_1_EveryYearHandler
                                           ; SOURCE LINE # 641
078A 803D              SJMP    ?C0113
078C         ?C0107:
                                           ; SOURCE LINE # 643
                                           ; SOURCE LINE # 647
078C 900000      E     MOV     DPTR,#RTC_1_statusDateTime
078F E0                MOVX    A,@DPTR
0790 FF                MOV     R7,A
0791 EF                MOV     A,R7
0792 5402              ANL     A,#02H
0794 FF                MOV     R7,A
0795 7E00              MOV     R6,#00H
0797 EF                MOV     A,R7
0798 4E                ORL     A,R6
0799 601E              JZ      ?C0114
079B 900000      E     MOV     DPTR,#RTC_1_currentTimeDate+07H
079E E0                MOVX    A,@DPTR
079F FF                MOV     R7,A
07A0 EF                MOV     A,R7
07A1 B40215            CJNE    A,#02H,?C0114
                                           ; SOURCE LINE # 649
                                           ; SOURCE LINE # 650
07A4 900000      E     MOV     DPTR,#RTC_1_currentTimeDate+07H
07A7 E0                MOVX    A,@DPTR
07A8 FF                MOV     R7,A
07A9 EF                MOV     A,R7
07AA 900000      E     MOV     DPTR,#RTC_1_daysInMonths-01H
07AD 93                MOVC    A,@A+DPTR
07AE FF                MOV     R7,A
07AF EF                MOV     A,R7
07B0 04                INC     A
07B1 FF                MOV     R7,A
07B2 900000      E     MOV     DPTR,#RTC_1_currentTimeDate+04H
07B5 EF                MOV     A,R7
07B6 F0                MOVX    @DPTR,A
                                           ; SOURCE LINE # 653
07B7 8010              SJMP    ?C0113
07B9         ?C0114:
                                           ; SOURCE LINE # 655
                                           ; SOURCE LINE # 656
07B9 900000      E     MOV     DPTR,#RTC_1_currentTimeDate+07H
07BC E0                MOVX    A,@DPTR
07BD FF                MOV     R7,A
07BE EF                MOV     A,R7
07BF 900000      E     MOV     DPTR,#RTC_1_daysInMonths-01H
07C2 93                MOVC    A,@A+DPTR
07C3 FF                MOV     R7,A
07C4 900000      E     MOV     DPTR,#RTC_1_currentTimeDate+04H
07C7 EF                MOV     A,R7
07C8 F0                MOVX    @DPTR,A
                                           ; SOURCE LINE # 658
07C9         ?C0115:
                                           ; SOURCE LINE # 659
07C9         ?C0113:
C51 COMPILER V9.51   RTC_1_INT                                                             05/01/2014 19:52:20 PAGE 43  

                                           ; SOURCE LINE # 660
07C9 120000      R     LCALL   RTC_1_EveryMonthHandler
                                           ; SOURCE LINE # 661
07CC         ?C0106:
                                           ; SOURCE LINE # 662
07CC 120000      R     LCALL   RTC_1_EveryDayHandler
                                           ; SOURCE LINE # 663
07CF         ?C0102:
                                           ; SOURCE LINE # 664
07CF 900000      E     MOV     DPTR,#RTC_1_statusDateTime
07D2 E0                MOVX    A,@DPTR
07D3 FF                MOV     R7,A
07D4 EF                MOV     A,R7
07D5 54FE              ANL     A,#0FEH
07D7 FF                MOV     R7,A
07D8 900000      E     MOV     DPTR,#RTC_1_statusDateTime
07DB EF                MOV     A,R7
07DC F0                MOVX    @DPTR,A
                                           ; SOURCE LINE # 665
07DD 900000      E     MOV     DPTR,#RTC_1_dstStopStatus
07E0 E4                CLR     A
07E1 F0                MOVX    @DPTR,A
                                           ; SOURCE LINE # 666
07E2         ?C0098:
                                           ; SOURCE LINE # 667
07E2 020000      R     LJMP    ?C0116
07E5         ?C0095:
                                           ; SOURCE LINE # 669
                                           ; SOURCE LINE # 670
07E5 900000      E     MOV     DPTR,#RTC_1_dstStartStatus
07E8 E0                MOVX    A,@DPTR
07E9 FF                MOV     R7,A
07EA EF                MOV     A,R7
07EB 5407              ANL     A,#07H
07ED FF                MOV     R7,A
07EE 7E00              MOV     R6,#00H
07F0 EF                MOV     A,R7
07F1 6407              XRL     A,#07H
07F3 4E                ORL     A,R6
07F4 7004              JNZ     ?C0118
07F6 7F01              MOV     R7,#01H
07F8 8002              SJMP    ?C0119
07FA         ?C0118:
07FA 7F00              MOV     R7,#00H
07FC         ?C0119:
07FC EF                MOV     A,R7
07FD 7003              JNZ     $ + 5H
07FF 020000      R     LJMP    ?C0116
                                           ; SOURCE LINE # 673
                                           ; SOURCE LINE # 675
0802 900000      E     MOV     DPTR,#RTC_1_dstOffsetMin
0805 E0                MOVX    A,@DPTR
0806 FF                MOV     R7,A
0807 7E00              MOV     R6,#00H
0809 7C00              MOV     R4,#00H
080B 7D3C              MOV     R5,#03CH
080D 120000      E     LCALL   ?C?UIDIV
0810 AF05              MOV     R7,AR5
0812 900000      E     MOV     DPTR,#RTC_1_currentTimeDate+01H
0815 E0                MOVX    A,@DPTR
0816 2F                ADD     A,R7
0817 F0                MOVX    @DPTR,A
C51 COMPILER V9.51   RTC_1_INT                                                             05/01/2014 19:52:20 PAGE 44  

                                           ; SOURCE LINE # 678
0818 900000      E     MOV     DPTR,#RTC_1_currentTimeDate+01H
081B E0                MOVX    A,@DPTR
081C FF                MOV     R7,A
081D EF                MOV     A,R7
081E D3                SETB    C
081F 943B              SUBB    A,#03BH
0821 400D              JC      ?C0120
                                           ; SOURCE LINE # 679
                                           ; SOURCE LINE # 681
0823 900000      E     MOV     DPTR,#RTC_1_currentTimeDate+01H
0826 E0                MOVX    A,@DPTR
0827 24C4              ADD     A,#0C4H
0829 F0                MOVX    @DPTR,A
                                           ; SOURCE LINE # 682
082A 900000      E     MOV     DPTR,#RTC_1_currentTimeDate+02H
082D E0                MOVX    A,@DPTR
082E 04                INC     A
082F F0                MOVX    @DPTR,A
                                           ; SOURCE LINE # 683
0830         ?C0120:
                                           ; SOURCE LINE # 685
0830 900000      E     MOV     DPTR,#RTC_1_dstOffsetMin
0833 E0                MOVX    A,@DPTR
0834 FF                MOV     R7,A
0835 7E00              MOV     R6,#00H
0837 7C00              MOV     R4,#00H
0839 7D3C              MOV     R5,#03CH
083B 120000      E     LCALL   ?C?UIDIV
083E 900000      E     MOV     DPTR,#RTC_1_currentTimeDate+02H
0841 E0                MOVX    A,@DPTR
0842 2F                ADD     A,R7
0843 F0                MOVX    @DPTR,A
                                           ; SOURCE LINE # 688
0844 900000      E     MOV     DPTR,#RTC_1_currentTimeDate+02H
0847 E0                MOVX    A,@DPTR
0848 FF                MOV     R7,A
0849 EF                MOV     A,R7
084A D3                SETB    C
084B 9417              SUBB    A,#017H
084D 5003              JNC     $ + 5H
084F 020000      R     LJMP    ?C0121
                                           ; SOURCE LINE # 689
                                           ; SOURCE LINE # 691
0852 900000      E     MOV     DPTR,#RTC_1_currentTimeDate+02H
0855 E0                MOVX    A,@DPTR
0856 24E8              ADD     A,#0E8H
0858 F0                MOVX    @DPTR,A
                                           ; SOURCE LINE # 694
0859 900000      E     MOV     DPTR,#RTC_1_currentTimeDate+02H
085C E0                MOVX    A,@DPTR
085D FF                MOV     R7,A
085E EF                MOV     A,R7
085F C3                CLR     C
0860 940C              SUBB    A,#0CH
0862 5010              JNC     ?C0122
                                           ; SOURCE LINE # 695
                                           ; SOURCE LINE # 697
0864 900000      E     MOV     DPTR,#RTC_1_statusDateTime
0867 E0                MOVX    A,@DPTR
0868 FF                MOV     R7,A
0869 EF                MOV     A,R7
C51 COMPILER V9.51   RTC_1_INT                                                             05/01/2014 19:52:20 PAGE 45  

086A 54FB              ANL     A,#0FBH
086C FF                MOV     R7,A
086D 900000      E     MOV     DPTR,#RTC_1_statusDateTime
0870 EF                MOV     A,R7
0871 F0                MOVX    @DPTR,A
                                           ; SOURCE LINE # 698
0872 800E              SJMP    ?C0123
0874         ?C0122:
                                           ; SOURCE LINE # 700
                                           ; SOURCE LINE # 702
0874 900000      E     MOV     DPTR,#RTC_1_statusDateTime
0877 E0                MOVX    A,@DPTR
0878 FF                MOV     R7,A
0879 EF                MOV     A,R7
087A 4404              ORL     A,#04H
087C FF                MOV     R7,A
087D 900000      E     MOV     DPTR,#RTC_1_statusDateTime
0880 EF                MOV     A,R7
0881 F0                MOVX    @DPTR,A
                                           ; SOURCE LINE # 703
0882         ?C0123:
                                           ; SOURCE LINE # 705
0882 900000      E     MOV     DPTR,#RTC_1_currentTimeDate+04H
0885 E0                MOVX    A,@DPTR
0886 04                INC     A
0887 F0                MOVX    @DPTR,A
                                           ; SOURCE LINE # 706
0888 900000      E     MOV     DPTR,#RTC_1_currentTimeDate+05H
088B E4                CLR     A
088C 75F001            MOV     B,#01H
088F 120000      E     LCALL   ?C?IILDX
                                           ; SOURCE LINE # 707
0892 900000      E     MOV     DPTR,#RTC_1_currentTimeDate+03H
0895 E0                MOVX    A,@DPTR
0896 04                INC     A
0897 F0                MOVX    @DPTR,A
                                           ; SOURCE LINE # 709
0898 900000      E     MOV     DPTR,#RTC_1_currentTimeDate+03H
089B E0                MOVX    A,@DPTR
089C FF                MOV     R7,A
089D EF                MOV     A,R7
089E D3                SETB    C
089F 9407              SUBB    A,#07H
08A1 4006              JC      ?C0124
                                           ; SOURCE LINE # 710
                                           ; SOURCE LINE # 711
08A3 900000      E     MOV     DPTR,#RTC_1_currentTimeDate+03H
08A6 7401              MOV     A,#01H
08A8 F0                MOVX    @DPTR,A
                                           ; SOURCE LINE # 712
08A9         ?C0124:
                                           ; SOURCE LINE # 719
08A9 900000      E     MOV     DPTR,#RTC_1_statusDateTime
08AC E0                MOVX    A,@DPTR
08AD FF                MOV     R7,A
08AE EF                MOV     A,R7
08AF 5402              ANL     A,#02H
08B1 FF                MOV     R7,A
08B2 7E00              MOV     R6,#00H
08B4 EF                MOV     A,R7
08B5 4E                ORL     A,R6
08B6 602C              JZ      ?C0127
C51 COMPILER V9.51   RTC_1_INT                                                             05/01/2014 19:52:20 PAGE 46  

08B8 900000      E     MOV     DPTR,#RTC_1_currentTimeDate+07H
08BB E0                MOVX    A,@DPTR
08BC FF                MOV     R7,A
08BD EF                MOV     A,R7
08BE B40223            CJNE    A,#02H,?C0127
08C1 900000      E     MOV     DPTR,#RTC_1_currentTimeDate+07H
08C4 E0                MOVX    A,@DPTR
08C5 FF                MOV     R7,A
08C6 EF                MOV     A,R7
08C7 900000      E     MOV     DPTR,#RTC_1_daysInMonths-01H
08CA 93                MOVC    A,@A+DPTR
08CB FF                MOV     R7,A
08CC 7E00              MOV     R6,#00H
08CE EF                MOV     A,R7
08CF 2401              ADD     A,#01H
08D1 FF                MOV     R7,A
08D2 EE                MOV     A,R6
08D3 3400              ADDC    A,#00H
08D5 FE                MOV     R6,A
08D6 900000      E     MOV     DPTR,#RTC_1_currentTimeDate+04H
08D9 E0                MOVX    A,@DPTR
08DA FD                MOV     R5,A
08DB 7C00              MOV     R4,#00H
08DD D3                SETB    C
08DE ED                MOV     A,R5
08DF 9F                SUBB    A,R7
08E0 EC                MOV     A,R4
08E1 9E                SUBB    A,R6
08E2 5058              JNC     ?C0126
08E4         ?C0127:
08E4 900000      E     MOV     DPTR,#RTC_1_statusDateTime
08E7 E0                MOVX    A,@DPTR
08E8 FF                MOV     R7,A
08E9 EF                MOV     A,R7
08EA 5402              ANL     A,#02H
08EC FF                MOV     R7,A
08ED 7E00              MOV     R6,#00H
08EF EF                MOV     A,R7
08F0 4E                ORL     A,R6
08F1 601F              JZ      ?C0128
08F3 900000      E     MOV     DPTR,#RTC_1_currentTimeDate+07H
08F6 E0                MOVX    A,@DPTR
08F7 FF                MOV     R7,A
08F8 EF                MOV     A,R7
08F9 6402              XRL     A,#02H
08FB 6015              JZ      ?C0128
08FD 900000      E     MOV     DPTR,#RTC_1_currentTimeDate+07H
0900 E0                MOVX    A,@DPTR
0901 FF                MOV     R7,A
0902 EF                MOV     A,R7
0903 900000      E     MOV     DPTR,#RTC_1_daysInMonths-01H
0906 93                MOVC    A,@A+DPTR
0907 FF                MOV     R7,A
0908 900000      E     MOV     DPTR,#RTC_1_currentTimeDate+04H
090B E0                MOVX    A,@DPTR
090C FE                MOV     R6,A
090D EE                MOV     A,R6
090E D3                SETB    C
090F 9F                SUBB    A,R7
0910 502A              JNC     ?C0126
0912         ?C0128:
0912 900000      E     MOV     DPTR,#RTC_1_statusDateTime
C51 COMPILER V9.51   RTC_1_INT                                                             05/01/2014 19:52:20 PAGE 47  

0915 E0                MOVX    A,@DPTR
0916 FF                MOV     R7,A
0917 EF                MOV     A,R7
0918 5402              ANL     A,#02H
091A FF                MOV     R7,A
091B 7E00              MOV     R6,#00H
091D EF                MOV     A,R7
091E 4E                ORL     A,R6
091F 6003              JZ      $ + 5H
0921 020000      R     LJMP    ?C0125
0924 900000      E     MOV     DPTR,#RTC_1_currentTimeDate+07H
0927 E0                MOVX    A,@DPTR
0928 FF                MOV     R7,A
0929 EF                MOV     A,R7
092A 900000      E     MOV     DPTR,#RTC_1_daysInMonths-01H
092D 93                MOVC    A,@A+DPTR
092E FF                MOV     R7,A
092F 900000      E     MOV     DPTR,#RTC_1_currentTimeDate+04H
0932 E0                MOVX    A,@DPTR
0933 FE                MOV     R6,A
0934 EE                MOV     A,R6
0935 D3                SETB    C
0936 9F                SUBB    A,R7
0937 5003              JNC     $ + 5H
0939 020000      R     LJMP    ?C0125
093C         ?C0126:
                                           ; SOURCE LINE # 730
                                           ; SOURCE LINE # 731
093C 900000      E     MOV     DPTR,#RTC_1_currentTimeDate+07H
093F E0                MOVX    A,@DPTR
0940 04                INC     A
0941 F0                MOVX    @DPTR,A
                                           ; SOURCE LINE # 732
0942 900000      E     MOV     DPTR,#RTC_1_currentTimeDate+04H
0945 7401              MOV     A,#01H
0947 F0                MOVX    @DPTR,A
                                           ; SOURCE LINE # 733
0948 900000      E     MOV     DPTR,#RTC_1_currentTimeDate+07H
094B E0                MOVX    A,@DPTR
094C FF                MOV     R7,A
094D EF                MOV     A,R7
094E D3                SETB    C
094F 940C              SUBB    A,#0CH
0951 407C              JC      ?C0129
                                           ; SOURCE LINE # 734
                                           ; SOURCE LINE # 735
0953 900000      E     MOV     DPTR,#RTC_1_currentTimeDate+07H
0956 7401              MOV     A,#01H
0958 F0                MOVX    @DPTR,A
                                           ; SOURCE LINE # 736
0959 900000      E     MOV     DPTR,#RTC_1_currentTimeDate+08H
095C E4                CLR     A
095D 75F001            MOV     B,#01H
0960 120000      E     LCALL   ?C?IILDX
                                           ; SOURCE LINE # 738
0963 900000      E     MOV     DPTR,#RTC_1_currentTimeDate+08H
0966 E0                MOVX    A,@DPTR
0967 FE                MOV     R6,A
0968 A3                INC     DPTR
0969 E0                MOVX    A,@DPTR
096A FF                MOV     R7,A
096B 7C01              MOV     R4,#01H
C51 COMPILER V9.51   RTC_1_INT                                                             05/01/2014 19:52:20 PAGE 48  

096D 7D90              MOV     R5,#090H
096F 120000      E     LCALL   ?C?UIDIV
0972 ED                MOV     A,R5
0973 4C                ORL     A,R4
0974 6025              JZ      ?C0133
0976 900000      E     MOV     DPTR,#RTC_1_currentTimeDate+08H
0979 E0                MOVX    A,@DPTR
097A FE                MOV     R6,A
097B A3                INC     DPTR
097C E0                MOVX    A,@DPTR
097D FF                MOV     R7,A
097E 7E00              MOV     R6,#00H
0980 EF                MOV     A,R7
0981 5403              ANL     A,#03H
0983 FF                MOV     R7,A
0984 EF                MOV     A,R7
0985 4E                ORL     A,R6
0986 7017              JNZ     ?C0131
0988 900000      E     MOV     DPTR,#RTC_1_currentTimeDate+08H
098B E0                MOVX    A,@DPTR
098C FE                MOV     R6,A
098D A3                INC     DPTR
098E E0                MOVX    A,@DPTR
098F FF                MOV     R7,A
0990 7C00              MOV     R4,#00H
0992 7D64              MOV     R5,#064H
0994 120000      E     LCALL   ?C?UIDIV
0997 ED                MOV     A,R5
0998 4C                ORL     A,R4
0999 6004              JZ      ?C0131
099B         ?C0133:
099B 7F01              MOV     R7,#01H
099D 8002              SJMP    ?C0132
099F         ?C0131:
099F 7F00              MOV     R7,#00H
09A1         ?C0132:
09A1 EF                MOV     A,R7
09A2 B40110            CJNE    A,#01H,?C0130
                                           ; SOURCE LINE # 739
                                           ; SOURCE LINE # 741
09A5 900000      E     MOV     DPTR,#RTC_1_statusDateTime
09A8 E0                MOVX    A,@DPTR
09A9 FF                MOV     R7,A
09AA EF                MOV     A,R7
09AB 4402              ORL     A,#02H
09AD FF                MOV     R7,A
09AE 900000      E     MOV     DPTR,#RTC_1_statusDateTime
09B1 EF                MOV     A,R7
09B2 F0                MOVX    @DPTR,A
                                           ; SOURCE LINE # 742
09B3 800E              SJMP    ?C0134
09B5         ?C0130:
                                           ; SOURCE LINE # 744
                                           ; SOURCE LINE # 745
09B5 900000      E     MOV     DPTR,#RTC_1_statusDateTime
09B8 E0                MOVX    A,@DPTR
09B9 FF                MOV     R7,A
09BA EF                MOV     A,R7
09BB 54FD              ANL     A,#0FDH
09BD FF                MOV     R7,A
09BE 900000      E     MOV     DPTR,#RTC_1_statusDateTime
09C1 EF                MOV     A,R7
C51 COMPILER V9.51   RTC_1_INT                                                             05/01/2014 19:52:20 PAGE 49  

09C2 F0                MOVX    @DPTR,A
                                           ; SOURCE LINE # 746
09C3         ?C0134:
                                           ; SOURCE LINE # 747
09C3 900000      E     MOV     DPTR,#RTC_1_currentTimeDate+05H
09C6 E4                CLR     A
09C7 F0                MOVX    @DPTR,A
09C8 A3                INC     DPTR
09C9 7401              MOV     A,#01H
09CB F0                MOVX    @DPTR,A
                                           ; SOURCE LINE # 749
09CC 120000      R     LCALL   RTC_1_EveryYearHandler
                                           ; SOURCE LINE # 750
09CF         ?C0129:
                                           ; SOURCE LINE # 751
09CF 120000      R     LCALL   RTC_1_EveryMonthHandler
                                           ; SOURCE LINE # 752
09D2         ?C0125:
                                           ; SOURCE LINE # 753
09D2 120000      R     LCALL   RTC_1_EveryDayHandler
                                           ; SOURCE LINE # 754
09D5         ?C0121:
                                           ; SOURCE LINE # 755
09D5 900000      E     MOV     DPTR,#RTC_1_statusDateTime
09D8 E0                MOVX    A,@DPTR
09D9 FF                MOV     R7,A
09DA EF                MOV     A,R7
09DB 4401              ORL     A,#01H
09DD FF                MOV     R7,A
09DE 900000      E     MOV     DPTR,#RTC_1_statusDateTime
09E1 EF                MOV     A,R7
09E2 F0                MOVX    @DPTR,A
                                           ; SOURCE LINE # 756
09E3 900000      E     MOV     DPTR,#RTC_1_dstStartStatus
09E6 E4                CLR     A
09E7 F0                MOVX    @DPTR,A
                                           ; SOURCE LINE # 759
09E8 900000      E     MOV     DPTR,#RTC_1_currentTimeDate+07H
09EB E0                MOVX    A,@DPTR
09EC FF                MOV     R7,A
09ED 900000      E     MOV     DPTR,#RTC_1_dstTimeDateStop+04H
09F0 E0                MOVX    A,@DPTR
09F1 FE                MOV     R6,A
09F2 EE                MOV     A,R6
09F3 B50710            CJNE    A,AR7,?C0135
                                           ; SOURCE LINE # 760
                                           ; SOURCE LINE # 761
09F6 900000      E     MOV     DPTR,#RTC_1_dstStopStatus
09F9 E0                MOVX    A,@DPTR
09FA FF                MOV     R7,A
09FB EF                MOV     A,R7
09FC 4404              ORL     A,#04H
09FE FF                MOV     R7,A
09FF 900000      E     MOV     DPTR,#RTC_1_dstStopStatus
0A02 EF                MOV     A,R7
0A03 F0                MOVX    @DPTR,A
                                           ; SOURCE LINE # 762
0A04 800E              SJMP    ?C0136
0A06         ?C0135:
                                           ; SOURCE LINE # 764
                                           ; SOURCE LINE # 765
0A06 900000      E     MOV     DPTR,#RTC_1_dstStopStatus
C51 COMPILER V9.51   RTC_1_INT                                                             05/01/2014 19:52:20 PAGE 50  

0A09 E0                MOVX    A,@DPTR
0A0A FF                MOV     R7,A
0A0B EF                MOV     A,R7
0A0C 54FB              ANL     A,#0FBH
0A0E FF                MOV     R7,A
0A0F 900000      E     MOV     DPTR,#RTC_1_dstStopStatus
0A12 EF                MOV     A,R7
0A13 F0                MOVX    @DPTR,A
                                           ; SOURCE LINE # 766
0A14         ?C0136:
                                           ; SOURCE LINE # 769
0A14 900000      E     MOV     DPTR,#RTC_1_currentTimeDate+04H
0A17 E0                MOVX    A,@DPTR
0A18 FF                MOV     R7,A
0A19 900000      E     MOV     DPTR,#RTC_1_dstTimeDateStop+03H
0A1C E0                MOVX    A,@DPTR
0A1D FE                MOV     R6,A
0A1E EE                MOV     A,R6
0A1F B50710            CJNE    A,AR7,?C0137
                                           ; SOURCE LINE # 771
                                           ; SOURCE LINE # 772
0A22 900000      E     MOV     DPTR,#RTC_1_dstStopStatus
0A25 E0                MOVX    A,@DPTR
0A26 FF                MOV     R7,A
0A27 EF                MOV     A,R7
0A28 4402              ORL     A,#02H
0A2A FF                MOV     R7,A
0A2B 900000      E     MOV     DPTR,#RTC_1_dstStopStatus
0A2E EF                MOV     A,R7
0A2F F0                MOVX    @DPTR,A
                                           ; SOURCE LINE # 773
0A30 800E              SJMP    ?C0116
0A32         ?C0137:
                                           ; SOURCE LINE # 775
                                           ; SOURCE LINE # 776
0A32 900000      E     MOV     DPTR,#RTC_1_dstStopStatus
0A35 E0                MOVX    A,@DPTR
0A36 FF                MOV     R7,A
0A37 EF                MOV     A,R7
0A38 54FD              ANL     A,#0FDH
0A3A FF                MOV     R7,A
0A3B 900000      E     MOV     DPTR,#RTC_1_dstStopStatus
0A3E EF                MOV     A,R7
0A3F F0                MOVX    @DPTR,A
                                           ; SOURCE LINE # 777
0A40         ?C0138:
                                           ; SOURCE LINE # 778
0A40         ?C0117:
                                           ; SOURCE LINE # 779
0A40         ?C0116:
                                           ; SOURCE LINE # 782
0A40 900000      E     MOV     DPTR,#RTC_1_alarmCfgMask
0A43 E0                MOVX    A,@DPTR
0A44 FF                MOV     R7,A
0A45 EF                MOV     A,R7
0A46 5408              ANL     A,#08H
0A48 FF                MOV     R7,A
0A49 7E00              MOV     R6,#00H
0A4B EF                MOV     A,R7
0A4C 6408              XRL     A,#08H
0A4E 4E                ORL     A,R6
0A4F 7004              JNZ     ?C0140
C51 COMPILER V9.51   RTC_1_INT                                                             05/01/2014 19:52:20 PAGE 51  

0A51 7F01              MOV     R7,#01H
0A53 8002              SJMP    ?C0141
0A55         ?C0140:
0A55 7F00              MOV     R7,#00H
0A57         ?C0141:
0A57 EF                MOV     A,R7
0A58 602C              JZ      ?C0139
                                           ; SOURCE LINE # 784
                                           ; SOURCE LINE # 785
0A5A 900000      E     MOV     DPTR,#RTC_1_currentTimeDate+03H
0A5D E0                MOVX    A,@DPTR
0A5E FF                MOV     R7,A
0A5F 900000      E     MOV     DPTR,#RTC_1_alarmCfgTimeDate+03H
0A62 E0                MOVX    A,@DPTR
0A63 FE                MOV     R6,A
0A64 EE                MOV     A,R6
0A65 B50710            CJNE    A,AR7,?C0142
                                           ; SOURCE LINE # 786
                                           ; SOURCE LINE # 787
0A68 900000      E     MOV     DPTR,#RTC_1_alarmCurStatus
0A6B E0                MOVX    A,@DPTR
0A6C FF                MOV     R7,A
0A6D EF                MOV     A,R7
0A6E 4408              ORL     A,#08H
0A70 FF                MOV     R7,A
0A71 900000      E     MOV     DPTR,#RTC_1_alarmCurStatus
0A74 EF                MOV     A,R7
0A75 F0                MOVX    @DPTR,A
                                           ; SOURCE LINE # 788
0A76 800E              SJMP    ?C0139
0A78         ?C0142:
                                           ; SOURCE LINE # 790
                                           ; SOURCE LINE # 791
0A78 900000      E     MOV     DPTR,#RTC_1_alarmCurStatus
0A7B E0                MOVX    A,@DPTR
0A7C FF                MOV     R7,A
0A7D EF                MOV     A,R7
0A7E 54F7              ANL     A,#0F7H
0A80 FF                MOV     R7,A
0A81 900000      E     MOV     DPTR,#RTC_1_alarmCurStatus
0A84 EF                MOV     A,R7
0A85 F0                MOVX    @DPTR,A
                                           ; SOURCE LINE # 792
0A86         ?C0143:
                                           ; SOURCE LINE # 793
0A86         ?C0139:
                                           ; SOURCE LINE # 796
0A86 900000      E     MOV     DPTR,#RTC_1_alarmCfgMask
0A89 E0                MOVX    A,@DPTR
0A8A FF                MOV     R7,A
0A8B EF                MOV     A,R7
0A8C 5420              ANL     A,#020H
0A8E FF                MOV     R7,A
0A8F 7E00              MOV     R6,#00H
0A91 EF                MOV     A,R7
0A92 6420              XRL     A,#020H
0A94 4E                ORL     A,R6
0A95 7004              JNZ     ?C0145
0A97 7F01              MOV     R7,#01H
0A99 8002              SJMP    ?C0146
0A9B         ?C0145:
0A9B 7F00              MOV     R7,#00H
C51 COMPILER V9.51   RTC_1_INT                                                             05/01/2014 19:52:20 PAGE 52  

0A9D         ?C0146:
0A9D EF                MOV     A,R7
0A9E 6036              JZ      ?C0144
                                           ; SOURCE LINE # 798
                                           ; SOURCE LINE # 799
0AA0 900000      E     MOV     DPTR,#RTC_1_currentTimeDate+05H
0AA3 E0                MOVX    A,@DPTR
0AA4 FE                MOV     R6,A
0AA5 A3                INC     DPTR
0AA6 E0                MOVX    A,@DPTR
0AA7 FF                MOV     R7,A
0AA8 900000      E     MOV     DPTR,#RTC_1_alarmCfgTimeDate+05H
0AAB E0                MOVX    A,@DPTR
0AAC FC                MOV     R4,A
0AAD A3                INC     DPTR
0AAE E0                MOVX    A,@DPTR
0AAF FD                MOV     R5,A
0AB0 ED                MOV     A,R5
0AB1 B50714            CJNE    A,AR7,?C0147
0AB4 EC                MOV     A,R4
0AB5 B50610            CJNE    A,AR6,?C0147
                                           ; SOURCE LINE # 800
                                           ; SOURCE LINE # 801
0AB8 900000      E     MOV     DPTR,#RTC_1_alarmCurStatus
0ABB E0                MOVX    A,@DPTR
0ABC FF                MOV     R7,A
0ABD EF                MOV     A,R7
0ABE 4420              ORL     A,#020H
0AC0 FF                MOV     R7,A
0AC1 900000      E     MOV     DPTR,#RTC_1_alarmCurStatus
0AC4 EF                MOV     A,R7
0AC5 F0                MOVX    @DPTR,A
                                           ; SOURCE LINE # 802
0AC6 800E              SJMP    ?C0144
0AC8         ?C0147:
                                           ; SOURCE LINE # 804
                                           ; SOURCE LINE # 805
0AC8 900000      E     MOV     DPTR,#RTC_1_alarmCurStatus
0ACB E0                MOVX    A,@DPTR
0ACC FF                MOV     R7,A
0ACD EF                MOV     A,R7
0ACE 54DF              ANL     A,#0DFH
0AD0 FF                MOV     R7,A
0AD1 900000      E     MOV     DPTR,#RTC_1_alarmCurStatus
0AD4 EF                MOV     A,R7
0AD5 F0                MOVX    @DPTR,A
                                           ; SOURCE LINE # 806
0AD6         ?C0148:
                                           ; SOURCE LINE # 807
0AD6         ?C0144:
                                           ; SOURCE LINE # 810
0AD6 900000      E     MOV     DPTR,#RTC_1_alarmCfgMask
0AD9 E0                MOVX    A,@DPTR
0ADA FF                MOV     R7,A
0ADB EF                MOV     A,R7
0ADC 5410              ANL     A,#010H
0ADE FF                MOV     R7,A
0ADF 7E00              MOV     R6,#00H
0AE1 EF                MOV     A,R7
0AE2 6410              XRL     A,#010H
0AE4 4E                ORL     A,R6
0AE5 7004              JNZ     ?C0150
C51 COMPILER V9.51   RTC_1_INT                                                             05/01/2014 19:52:20 PAGE 53  

0AE7 7F01              MOV     R7,#01H
0AE9 8002              SJMP    ?C0151
0AEB         ?C0150:
0AEB 7F00              MOV     R7,#00H
0AED         ?C0151:
0AED EF                MOV     A,R7
0AEE 602C              JZ      ?C0149
                                           ; SOURCE LINE # 812
                                           ; SOURCE LINE # 813
0AF0 900000      E     MOV     DPTR,#RTC_1_currentTimeDate+04H
0AF3 E0                MOVX    A,@DPTR
0AF4 FF                MOV     R7,A
0AF5 900000      E     MOV     DPTR,#RTC_1_alarmCfgTimeDate+04H
0AF8 E0                MOVX    A,@DPTR
0AF9 FE                MOV     R6,A
0AFA EE                MOV     A,R6
0AFB B50710            CJNE    A,AR7,?C0152
                                           ; SOURCE LINE # 814
                                           ; SOURCE LINE # 815
0AFE 900000      E     MOV     DPTR,#RTC_1_alarmCurStatus
0B01 E0                MOVX    A,@DPTR
0B02 FF                MOV     R7,A
0B03 EF                MOV     A,R7
0B04 4410              ORL     A,#010H
0B06 FF                MOV     R7,A
0B07 900000      E     MOV     DPTR,#RTC_1_alarmCurStatus
0B0A EF                MOV     A,R7
0B0B F0                MOVX    @DPTR,A
                                           ; SOURCE LINE # 816
0B0C 800E              SJMP    ?C0149
0B0E         ?C0152:
                                           ; SOURCE LINE # 818
                                           ; SOURCE LINE # 819
0B0E 900000      E     MOV     DPTR,#RTC_1_alarmCurStatus
0B11 E0                MOVX    A,@DPTR
0B12 FF                MOV     R7,A
0B13 EF                MOV     A,R7
0B14 54EF              ANL     A,#0EFH
0B16 FF                MOV     R7,A
0B17 900000      E     MOV     DPTR,#RTC_1_alarmCurStatus
0B1A EF                MOV     A,R7
0B1B F0                MOVX    @DPTR,A
                                           ; SOURCE LINE # 820
0B1C         ?C0153:
                                           ; SOURCE LINE # 821
0B1C         ?C0149:
                                           ; SOURCE LINE # 824
0B1C 900000      E     MOV     DPTR,#RTC_1_alarmCfgMask
0B1F E0                MOVX    A,@DPTR
0B20 FF                MOV     R7,A
0B21 EF                MOV     A,R7
0B22 5440              ANL     A,#040H
0B24 FF                MOV     R7,A
0B25 7E00              MOV     R6,#00H
0B27 EF                MOV     A,R7
0B28 6440              XRL     A,#040H
0B2A 4E                ORL     A,R6
0B2B 7004              JNZ     ?C0155
0B2D 7F01              MOV     R7,#01H
0B2F 8002              SJMP    ?C0156
0B31         ?C0155:
0B31 7F00              MOV     R7,#00H
C51 COMPILER V9.51   RTC_1_INT                                                             05/01/2014 19:52:20 PAGE 54  

0B33         ?C0156:
0B33 EF                MOV     A,R7
0B34 602C              JZ      ?C0154
                                           ; SOURCE LINE # 826
                                           ; SOURCE LINE # 827
0B36 900000      E     MOV     DPTR,#RTC_1_currentTimeDate+07H
0B39 E0                MOVX    A,@DPTR
0B3A FF                MOV     R7,A
0B3B 900000      E     MOV     DPTR,#RTC_1_alarmCfgTimeDate+07H
0B3E E0                MOVX    A,@DPTR
0B3F FE                MOV     R6,A
0B40 EE                MOV     A,R6
0B41 B50710            CJNE    A,AR7,?C0157
                                           ; SOURCE LINE # 828
                                           ; SOURCE LINE # 829
0B44 900000      E     MOV     DPTR,#RTC_1_alarmCurStatus
0B47 E0                MOVX    A,@DPTR
0B48 FF                MOV     R7,A
0B49 EF                MOV     A,R7
0B4A 4440              ORL     A,#040H
0B4C FF                MOV     R7,A
0B4D 900000      E     MOV     DPTR,#RTC_1_alarmCurStatus
0B50 EF                MOV     A,R7
0B51 F0                MOVX    @DPTR,A
                                           ; SOURCE LINE # 830
0B52 800E              SJMP    ?C0154
0B54         ?C0157:
                                           ; SOURCE LINE # 832
                                           ; SOURCE LINE # 833
0B54 900000      E     MOV     DPTR,#RTC_1_alarmCurStatus
0B57 E0                MOVX    A,@DPTR
0B58 FF                MOV     R7,A
0B59 EF                MOV     A,R7
0B5A 54BF              ANL     A,#0BFH
0B5C FF                MOV     R7,A
0B5D 900000      E     MOV     DPTR,#RTC_1_alarmCurStatus
0B60 EF                MOV     A,R7
0B61 F0                MOVX    @DPTR,A
                                           ; SOURCE LINE # 834
0B62         ?C0158:
                                           ; SOURCE LINE # 835
0B62         ?C0154:
                                           ; SOURCE LINE # 838
0B62 900000      E     MOV     DPTR,#RTC_1_alarmCfgMask
0B65 E0                MOVX    A,@DPTR
0B66 FF                MOV     R7,A
0B67 EF                MOV     A,R7
0B68 5480              ANL     A,#080H
0B6A FF                MOV     R7,A
0B6B 7E00              MOV     R6,#00H
0B6D EF                MOV     A,R7
0B6E 6480              XRL     A,#080H
0B70 4E                ORL     A,R6
0B71 7004              JNZ     ?C0160
0B73 7F01              MOV     R7,#01H
0B75 8002              SJMP    ?C0161
0B77         ?C0160:
0B77 7F00              MOV     R7,#00H
0B79         ?C0161:
0B79 EF                MOV     A,R7
0B7A 6036              JZ      ?C0159
                                           ; SOURCE LINE # 840
C51 COMPILER V9.51   RTC_1_INT                                                             05/01/2014 19:52:20 PAGE 55  

                                           ; SOURCE LINE # 841
0B7C 900000      E     MOV     DPTR,#RTC_1_currentTimeDate+08H
0B7F E0                MOVX    A,@DPTR
0B80 FE                MOV     R6,A
0B81 A3                INC     DPTR
0B82 E0                MOVX    A,@DPTR
0B83 FF                MOV     R7,A
0B84 900000      E     MOV     DPTR,#RTC_1_alarmCfgTimeDate+08H
0B87 E0                MOVX    A,@DPTR
0B88 FC                MOV     R4,A
0B89 A3                INC     DPTR
0B8A E0                MOVX    A,@DPTR
0B8B FD                MOV     R5,A
0B8C ED                MOV     A,R5
0B8D B50714            CJNE    A,AR7,?C0162
0B90 EC                MOV     A,R4
0B91 B50610            CJNE    A,AR6,?C0162
                                           ; SOURCE LINE # 842
                                           ; SOURCE LINE # 843
0B94 900000      E     MOV     DPTR,#RTC_1_alarmCurStatus
0B97 E0                MOVX    A,@DPTR
0B98 FF                MOV     R7,A
0B99 EF                MOV     A,R7
0B9A 4480              ORL     A,#080H
0B9C FF                MOV     R7,A
0B9D 900000      E     MOV     DPTR,#RTC_1_alarmCurStatus
0BA0 EF                MOV     A,R7
0BA1 F0                MOVX    @DPTR,A
                                           ; SOURCE LINE # 844
0BA2 800E              SJMP    ?C0159
0BA4         ?C0162:
                                           ; SOURCE LINE # 846
                                           ; SOURCE LINE # 847
0BA4 900000      E     MOV     DPTR,#RTC_1_alarmCurStatus
0BA7 E0                MOVX    A,@DPTR
0BA8 FF                MOV     R7,A
0BA9 EF                MOV     A,R7
0BAA 547F              ANL     A,#07FH
0BAC FF                MOV     R7,A
0BAD 900000      E     MOV     DPTR,#RTC_1_alarmCurStatus
0BB0 EF                MOV     A,R7
0BB1 F0                MOVX    @DPTR,A
                                           ; SOURCE LINE # 848
0BB2         ?C0163:
                                           ; SOURCE LINE # 849
0BB2         ?C0159:
                                           ; SOURCE LINE # 852
0BB2 900000      E     MOV     DPTR,#RTC_1_alarmCfgMask
0BB5 E0                MOVX    A,@DPTR
0BB6 FF                MOV     R7,A
0BB7 900000      R     MOV     DPTR,#RTC_1_tmp
0BBA EF                MOV     A,R7
0BBB F0                MOVX    @DPTR,A
0BBC         ?C0166:
                                           ; SOURCE LINE # 855
0BBC 900000      R     MOV     DPTR,#RTC_1_tmp
0BBF E0                MOVX    A,@DPTR
0BC0 FF                MOV     R7,A
0BC1 EF                MOV     A,R7
0BC2 6032              JZ      ?C0092
0BC4 900000      R     MOV     DPTR,#RTC_1_tmp
0BC7 E0                MOVX    A,@DPTR
C51 COMPILER V9.51   RTC_1_INT                                                             05/01/2014 19:52:20 PAGE 56  

0BC8 FF                MOV     R7,A
0BC9 900000      E     MOV     DPTR,#RTC_1_alarmCurStatus
0BCC E0                MOVX    A,@DPTR
0BCD FE                MOV     R6,A
0BCE EE                MOV     A,R6
0BCF 5F                ANL     A,R7
0BD0 FF                MOV     R7,A
0BD1 900000      R     MOV     DPTR,#RTC_1_tmp
0BD4 E0                MOVX    A,@DPTR
0BD5 FE                MOV     R6,A
0BD6 EF                MOV     A,R7
0BD7 B50604            CJNE    A,AR6,?C0168
0BDA 7F01              MOV     R7,#01H
0BDC 8002              SJMP    ?C0169
0BDE         ?C0168:
0BDE 7F00              MOV     R7,#00H
0BE0         ?C0169:
0BE0 EF                MOV     A,R7
0BE1 6013              JZ      ?C0092
0BE3 900000      E     MOV     DPTR,#RTC_1_statusDateTime
0BE6 E0                MOVX    A,@DPTR
0BE7 FF                MOV     R7,A
0BE8 EF                MOV     A,R7
0BE9 4408              ORL     A,#08H
0BEB FF                MOV     R7,A
0BEC 900000      E     MOV     DPTR,#RTC_1_statusDateTime
0BEF EF                MOV     A,R7
0BF0 F0                MOVX    @DPTR,A
0BF1 900000      E     MOV     DPTR,#RTC_1_alarmCurStatus
0BF4 E4                CLR     A
0BF5 F0                MOVX    @DPTR,A
0BF6         ?C0167:
0BF6         ?C0164:
0BF6         ?C0165:
                                           ; SOURCE LINE # 856
0BF6         ?C0092:
                                           ; SOURCE LINE # 860
0BF6 900000      E     MOV     DPTR,#RTC_1_alarmCfgMask
0BF9 E0                MOVX    A,@DPTR
0BFA FF                MOV     R7,A
0BFB EF                MOV     A,R7
0BFC 5404              ANL     A,#04H
0BFE FF                MOV     R7,A
0BFF 7E00              MOV     R6,#00H
0C01 EF                MOV     A,R7
0C02 6404              XRL     A,#04H
0C04 4E                ORL     A,R6
0C05 7004              JNZ     ?C0171
0C07 7F01              MOV     R7,#01H
0C09 8002              SJMP    ?C0172
0C0B         ?C0171:
0C0B 7F00              MOV     R7,#00H
0C0D         ?C0172:
0C0D EF                MOV     A,R7
0C0E 602C              JZ      ?C0170
                                           ; SOURCE LINE # 861
                                           ; SOURCE LINE # 862
0C10 900000      E     MOV     DPTR,#RTC_1_currentTimeDate+02H
0C13 E0                MOVX    A,@DPTR
0C14 FF                MOV     R7,A
0C15 900000      E     MOV     DPTR,#RTC_1_alarmCfgTimeDate+02H
0C18 E0                MOVX    A,@DPTR
C51 COMPILER V9.51   RTC_1_INT                                                             05/01/2014 19:52:20 PAGE 57  

0C19 FE                MOV     R6,A
0C1A EE                MOV     A,R6
0C1B B50710            CJNE    A,AR7,?C0173
                                           ; SOURCE LINE # 863
                                           ; SOURCE LINE # 864
0C1E 900000      E     MOV     DPTR,#RTC_1_alarmCurStatus
0C21 E0                MOVX    A,@DPTR
0C22 FF                MOV     R7,A
0C23 EF                MOV     A,R7
0C24 4404              ORL     A,#04H
0C26 FF                MOV     R7,A
0C27 900000      E     MOV     DPTR,#RTC_1_alarmCurStatus
0C2A EF                MOV     A,R7
0C2B F0                MOVX    @DPTR,A
                                           ; SOURCE LINE # 865
0C2C 800E              SJMP    ?C0170
0C2E         ?C0173:
                                           ; SOURCE LINE # 867
                                           ; SOURCE LINE # 868
0C2E 900000      E     MOV     DPTR,#RTC_1_alarmCurStatus
0C31 E0                MOVX    A,@DPTR
0C32 FF                MOV     R7,A
0C33 EF                MOV     A,R7
0C34 54FB              ANL     A,#0FBH
0C36 FF                MOV     R7,A
0C37 900000      E     MOV     DPTR,#RTC_1_alarmCurStatus
0C3A EF                MOV     A,R7
0C3B F0                MOVX    @DPTR,A
                                           ; SOURCE LINE # 869
0C3C         ?C0174:
                                           ; SOURCE LINE # 870
0C3C         ?C0170:
                                           ; SOURCE LINE # 873
0C3C 900000      E     MOV     DPTR,#RTC_1_alarmCfgMask
0C3F E0                MOVX    A,@DPTR
0C40 FF                MOV     R7,A
0C41 900000      R     MOV     DPTR,#RTC_1_tmp
0C44 EF                MOV     A,R7
0C45 F0                MOVX    @DPTR,A
0C46         ?C0177:
                                           ; SOURCE LINE # 876
0C46 900000      R     MOV     DPTR,#RTC_1_tmp
0C49 E0                MOVX    A,@DPTR
0C4A FF                MOV     R7,A
0C4B EF                MOV     A,R7
0C4C 6032              JZ      ?C0176
0C4E 900000      R     MOV     DPTR,#RTC_1_tmp
0C51 E0                MOVX    A,@DPTR
0C52 FF                MOV     R7,A
0C53 900000      E     MOV     DPTR,#RTC_1_alarmCurStatus
0C56 E0                MOVX    A,@DPTR
0C57 FE                MOV     R6,A
0C58 EE                MOV     A,R6
0C59 5F                ANL     A,R7
0C5A FF                MOV     R7,A
0C5B 900000      R     MOV     DPTR,#RTC_1_tmp
0C5E E0                MOVX    A,@DPTR
0C5F FE                MOV     R6,A
0C60 EF                MOV     A,R7
0C61 B50604            CJNE    A,AR6,?C0179
0C64 7F01              MOV     R7,#01H
0C66 8002              SJMP    ?C0180
C51 COMPILER V9.51   RTC_1_INT                                                             05/01/2014 19:52:20 PAGE 58  

0C68         ?C0179:
0C68 7F00              MOV     R7,#00H
0C6A         ?C0180:
0C6A EF                MOV     A,R7
0C6B 6013              JZ      ?C0176
0C6D 900000      E     MOV     DPTR,#RTC_1_statusDateTime
0C70 E0                MOVX    A,@DPTR
0C71 FF                MOV     R7,A
0C72 EF                MOV     A,R7
0C73 4408              ORL     A,#08H
0C75 FF                MOV     R7,A
0C76 900000      E     MOV     DPTR,#RTC_1_statusDateTime
0C79 EF                MOV     A,R7
0C7A F0                MOVX    @DPTR,A
0C7B 900000      E     MOV     DPTR,#RTC_1_alarmCurStatus
0C7E E4                CLR     A
0C7F F0                MOVX    @DPTR,A
0C80         ?C0178:
0C80         ?C0175:
0C80         ?C0176:
                                           ; SOURCE LINE # 879
0C80 900000      E     MOV     DPTR,#RTC_1_intervalCfgMask
0C83 E0                MOVX    A,@DPTR
0C84 FF                MOV     R7,A
0C85 EF                MOV     A,R7
0C86 5404              ANL     A,#04H
0C88 FF                MOV     R7,A
0C89 7E00              MOV     R6,#00H
0C8B EF                MOV     A,R7
0C8C 6404              XRL     A,#04H
0C8E 4E                ORL     A,R6
0C8F 7004              JNZ     ?C0182
0C91 7F01              MOV     R7,#01H
0C93 8002              SJMP    ?C0183
0C95         ?C0182:
0C95 7F00              MOV     R7,#00H
0C97         ?C0183:
0C97 EF                MOV     A,R7
0C98 6003              JZ      ?C0009
                                           ; SOURCE LINE # 880
                                           ; SOURCE LINE # 881
0C9A 120000      R     LCALL   RTC_1_EveryHourHandler
                                           ; SOURCE LINE # 882
0C9D         ?C0181:
                                           ; SOURCE LINE # 883
0C9D         ?C0009:
                                           ; SOURCE LINE # 886
0C9D 900000      E     MOV     DPTR,#RTC_1_alarmCfgMask
0CA0 E0                MOVX    A,@DPTR
0CA1 FF                MOV     R7,A
0CA2 EF                MOV     A,R7
0CA3 5402              ANL     A,#02H
0CA5 FF                MOV     R7,A
0CA6 7E00              MOV     R6,#00H
0CA8 EF                MOV     A,R7
0CA9 6402              XRL     A,#02H
0CAB 4E                ORL     A,R6
0CAC 7004              JNZ     ?C0185
0CAE 7F01              MOV     R7,#01H
0CB0 8002              SJMP    ?C0186
0CB2         ?C0185:
0CB2 7F00              MOV     R7,#00H
C51 COMPILER V9.51   RTC_1_INT                                                             05/01/2014 19:52:20 PAGE 59  

0CB4         ?C0186:
0CB4 EF                MOV     A,R7
0CB5 602C              JZ      ?C0184
                                           ; SOURCE LINE # 887
                                           ; SOURCE LINE # 888
0CB7 900000      E     MOV     DPTR,#RTC_1_currentTimeDate+01H
0CBA E0                MOVX    A,@DPTR
0CBB FF                MOV     R7,A
0CBC 900000      E     MOV     DPTR,#RTC_1_alarmCfgTimeDate+01H
0CBF E0                MOVX    A,@DPTR
0CC0 FE                MOV     R6,A
0CC1 EE                MOV     A,R6
0CC2 B50710            CJNE    A,AR7,?C0187
                                           ; SOURCE LINE # 889
                                           ; SOURCE LINE # 890
0CC5 900000      E     MOV     DPTR,#RTC_1_alarmCurStatus
0CC8 E0                MOVX    A,@DPTR
0CC9 FF                MOV     R7,A
0CCA EF                MOV     A,R7
0CCB 4402              ORL     A,#02H
0CCD FF                MOV     R7,A
0CCE 900000      E     MOV     DPTR,#RTC_1_alarmCurStatus
0CD1 EF                MOV     A,R7
0CD2 F0                MOVX    @DPTR,A
                                           ; SOURCE LINE # 891
0CD3 800E              SJMP    ?C0184
0CD5         ?C0187:
                                           ; SOURCE LINE # 893
                                           ; SOURCE LINE # 894
0CD5 900000      E     MOV     DPTR,#RTC_1_alarmCurStatus
0CD8 E0                MOVX    A,@DPTR
0CD9 FF                MOV     R7,A
0CDA EF                MOV     A,R7
0CDB 54FD              ANL     A,#0FDH
0CDD FF                MOV     R7,A
0CDE 900000      E     MOV     DPTR,#RTC_1_alarmCurStatus
0CE1 EF                MOV     A,R7
0CE2 F0                MOVX    @DPTR,A
                                           ; SOURCE LINE # 895
0CE3         ?C0188:
                                           ; SOURCE LINE # 896
0CE3         ?C0184:
                                           ; SOURCE LINE # 899
0CE3 900000      E     MOV     DPTR,#RTC_1_alarmCfgMask
0CE6 E0                MOVX    A,@DPTR
0CE7 FF                MOV     R7,A
0CE8 900000      R     MOV     DPTR,#RTC_1_tmp
0CEB EF                MOV     A,R7
0CEC F0                MOVX    @DPTR,A
0CED         ?C0191:
                                           ; SOURCE LINE # 902
0CED 900000      R     MOV     DPTR,#RTC_1_tmp
0CF0 E0                MOVX    A,@DPTR
0CF1 FF                MOV     R7,A
0CF2 EF                MOV     A,R7
0CF3 6032              JZ      ?C0190
0CF5 900000      R     MOV     DPTR,#RTC_1_tmp
0CF8 E0                MOVX    A,@DPTR
0CF9 FF                MOV     R7,A
0CFA 900000      E     MOV     DPTR,#RTC_1_alarmCurStatus
0CFD E0                MOVX    A,@DPTR
0CFE FE                MOV     R6,A
C51 COMPILER V9.51   RTC_1_INT                                                             05/01/2014 19:52:20 PAGE 60  

0CFF EE                MOV     A,R6
0D00 5F                ANL     A,R7
0D01 FF                MOV     R7,A
0D02 900000      R     MOV     DPTR,#RTC_1_tmp
0D05 E0                MOVX    A,@DPTR
0D06 FE                MOV     R6,A
0D07 EF                MOV     A,R7
0D08 B50604            CJNE    A,AR6,?C0193
0D0B 7F01              MOV     R7,#01H
0D0D 8002              SJMP    ?C0194
0D0F         ?C0193:
0D0F 7F00              MOV     R7,#00H
0D11         ?C0194:
0D11 EF                MOV     A,R7
0D12 6013              JZ      ?C0190
0D14 900000      E     MOV     DPTR,#RTC_1_statusDateTime
0D17 E0                MOVX    A,@DPTR
0D18 FF                MOV     R7,A
0D19 EF                MOV     A,R7
0D1A 4408              ORL     A,#08H
0D1C FF                MOV     R7,A
0D1D 900000      E     MOV     DPTR,#RTC_1_statusDateTime
0D20 EF                MOV     A,R7
0D21 F0                MOVX    @DPTR,A
0D22 900000      E     MOV     DPTR,#RTC_1_alarmCurStatus
0D25 E4                CLR     A
0D26 F0                MOVX    @DPTR,A
0D27         ?C0192:
0D27         ?C0189:
0D27         ?C0190:
                                           ; SOURCE LINE # 905
0D27 900000      E     MOV     DPTR,#RTC_1_intervalCfgMask
0D2A E0                MOVX    A,@DPTR
0D2B FF                MOV     R7,A
0D2C EF                MOV     A,R7
0D2D 5402              ANL     A,#02H
0D2F FF                MOV     R7,A
0D30 7E00              MOV     R6,#00H
0D32 EF                MOV     A,R7
0D33 6402              XRL     A,#02H
0D35 4E                ORL     A,R6
0D36 7004              JNZ     ?C0196
0D38 7F01              MOV     R7,#01H
0D3A 8002              SJMP    ?C0197
0D3C         ?C0196:
0D3C 7F00              MOV     R7,#00H
0D3E         ?C0197:
0D3E EF                MOV     A,R7
0D3F 6003              JZ      ?C0008
                                           ; SOURCE LINE # 906
                                           ; SOURCE LINE # 907
0D41 120000      R     LCALL   RTC_1_EveryMinuteHandler
                                           ; SOURCE LINE # 908
0D44         ?C0195:
                                           ; SOURCE LINE # 909
0D44         ?C0008:
                                           ; SOURCE LINE # 912
0D44 900000      E     MOV     DPTR,#RTC_1_alarmCfgMask
0D47 E0                MOVX    A,@DPTR
0D48 FF                MOV     R7,A
0D49 EF                MOV     A,R7
0D4A 5401              ANL     A,#01H
C51 COMPILER V9.51   RTC_1_INT                                                             05/01/2014 19:52:20 PAGE 61  

0D4C FF                MOV     R7,A
0D4D 7E00              MOV     R6,#00H
0D4F EF                MOV     A,R7
0D50 6401              XRL     A,#01H
0D52 4E                ORL     A,R6
0D53 7004              JNZ     ?C0199
0D55 7F01              MOV     R7,#01H
0D57 8002              SJMP    ?C0200
0D59         ?C0199:
0D59 7F00              MOV     R7,#00H
0D5B         ?C0200:
0D5B EF                MOV     A,R7
0D5C 602C              JZ      ?C0198
                                           ; SOURCE LINE # 913
                                           ; SOURCE LINE # 914
0D5E 900000      E     MOV     DPTR,#RTC_1_currentTimeDate
0D61 E0                MOVX    A,@DPTR
0D62 FF                MOV     R7,A
0D63 900000      E     MOV     DPTR,#RTC_1_alarmCfgTimeDate
0D66 E0                MOVX    A,@DPTR
0D67 FE                MOV     R6,A
0D68 EE                MOV     A,R6
0D69 B50710            CJNE    A,AR7,?C0201
                                           ; SOURCE LINE # 915
                                           ; SOURCE LINE # 916
0D6C 900000      E     MOV     DPTR,#RTC_1_alarmCurStatus
0D6F E0                MOVX    A,@DPTR
0D70 FF                MOV     R7,A
0D71 EF                MOV     A,R7
0D72 4401              ORL     A,#01H
0D74 FF                MOV     R7,A
0D75 900000      E     MOV     DPTR,#RTC_1_alarmCurStatus
0D78 EF                MOV     A,R7
0D79 F0                MOVX    @DPTR,A
                                           ; SOURCE LINE # 917
0D7A 800E              SJMP    ?C0198
0D7C         ?C0201:
                                           ; SOURCE LINE # 919
                                           ; SOURCE LINE # 920
0D7C 900000      E     MOV     DPTR,#RTC_1_alarmCurStatus
0D7F E0                MOVX    A,@DPTR
0D80 FF                MOV     R7,A
0D81 EF                MOV     A,R7
0D82 54FE              ANL     A,#0FEH
0D84 FF                MOV     R7,A
0D85 900000      E     MOV     DPTR,#RTC_1_alarmCurStatus
0D88 EF                MOV     A,R7
0D89 F0                MOVX    @DPTR,A
                                           ; SOURCE LINE # 921
0D8A         ?C0202:
                                           ; SOURCE LINE # 922
0D8A         ?C0198:
                                           ; SOURCE LINE # 925
0D8A 900000      E     MOV     DPTR,#RTC_1_alarmCfgMask
0D8D E0                MOVX    A,@DPTR
0D8E FF                MOV     R7,A
0D8F 900000      R     MOV     DPTR,#RTC_1_tmp
0D92 EF                MOV     A,R7
0D93 F0                MOVX    @DPTR,A
0D94         ?C0205:
                                           ; SOURCE LINE # 926
0D94 900000      R     MOV     DPTR,#RTC_1_tmp
C51 COMPILER V9.51   RTC_1_INT                                                             05/01/2014 19:52:20 PAGE 62  

0D97 E0                MOVX    A,@DPTR
0D98 FF                MOV     R7,A
0D99 EF                MOV     A,R7
0D9A 6032              JZ      ?C0204
0D9C 900000      R     MOV     DPTR,#RTC_1_tmp
0D9F E0                MOVX    A,@DPTR
0DA0 FF                MOV     R7,A
0DA1 900000      E     MOV     DPTR,#RTC_1_alarmCurStatus
0DA4 E0                MOVX    A,@DPTR
0DA5 FE                MOV     R6,A
0DA6 EE                MOV     A,R6
0DA7 5F                ANL     A,R7
0DA8 FF                MOV     R7,A
0DA9 900000      R     MOV     DPTR,#RTC_1_tmp
0DAC E0                MOVX    A,@DPTR
0DAD FE                MOV     R6,A
0DAE EF                MOV     A,R7
0DAF B50604            CJNE    A,AR6,?C0207
0DB2 7F01              MOV     R7,#01H
0DB4 8002              SJMP    ?C0208
0DB6         ?C0207:
0DB6 7F00              MOV     R7,#00H
0DB8         ?C0208:
0DB8 EF                MOV     A,R7
0DB9 6013              JZ      ?C0204
0DBB 900000      E     MOV     DPTR,#RTC_1_statusDateTime
0DBE E0                MOVX    A,@DPTR
0DBF FF                MOV     R7,A
0DC0 EF                MOV     A,R7
0DC1 4408              ORL     A,#08H
0DC3 FF                MOV     R7,A
0DC4 900000      E     MOV     DPTR,#RTC_1_statusDateTime
0DC7 EF                MOV     A,R7
0DC8 F0                MOVX    @DPTR,A
0DC9 900000      E     MOV     DPTR,#RTC_1_alarmCurStatus
0DCC E4                CLR     A
0DCD F0                MOVX    @DPTR,A
0DCE         ?C0206:
0DCE         ?C0203:
0DCE         ?C0204:
                                           ; SOURCE LINE # 929
0DCE 900000      E     MOV     DPTR,#RTC_1_intervalCfgMask
0DD1 E0                MOVX    A,@DPTR
0DD2 FF                MOV     R7,A
0DD3 EF                MOV     A,R7
0DD4 5401              ANL     A,#01H
0DD6 FF                MOV     R7,A
0DD7 7E00              MOV     R6,#00H
0DD9 EF                MOV     A,R7
0DDA 6401              XRL     A,#01H
0DDC 4E                ORL     A,R6
0DDD 7004              JNZ     ?C0210
0DDF 7F01              MOV     R7,#01H
0DE1 8002              SJMP    ?C0211
0DE3         ?C0210:
0DE3 7F00              MOV     R7,#00H
0DE5         ?C0211:
0DE5 EF                MOV     A,R7
0DE6 6003              JZ      ?C0212
                                           ; SOURCE LINE # 930
                                           ; SOURCE LINE # 931
0DE8 120000      R     LCALL   RTC_1_EverySecondHandler
C51 COMPILER V9.51   RTC_1_INT                                                             05/01/2014 19:52:20 PAGE 63  

                                           ; SOURCE LINE # 932
0DEB         ?C0209:
                                           ; SOURCE LINE # 934
0DEB         ?C0212:
0DEB D007              POP     AR7
0DED D006              POP     AR6
0DEF D005              POP     AR5
0DF1 D004              POP     AR4
0DF3 D003              POP     AR3
0DF5 D002              POP     AR2
0DF7 D001              POP     AR1
0DF9 D000              POP     AR0
0DFB D0D0              POP     PSW
0DFD D000        E     POP     ?C?XPAGE1SFR
0DFF D086              POP     DPS
0E01 D084              POP     DPL1
0E03 D085              POP     DPH1
0E05 D082              POP     DPL
0E07 D083              POP     DPH
0E09 D0F0              POP     B
0E0B D0E0              POP     ACC
0E0D 32                RETI    
             ; FUNCTION RTC_1_ISR (END)



MODULE INFORMATION:   STATIC OVERLAYABLE
   CODE SIZE        =   3626    ----
   CONSTANT SIZE    =   ----    ----
   XDATA SIZE       =      1    ----
   PDATA SIZE       =   ----    ----
   DATA SIZE        =   ----    ----
   IDATA SIZE       =   ----    ----
   BIT SIZE         =   ----    ----
   EDATA SIZE       =   ----    ----
   HDATA SIZE       =   ----    ----
   XDATA CONST SIZE =   ----    ----
   FAR CONST SIZE   =   ----    ----
END OF MODULE INFORMATION.


C51 COMPILATION COMPLETE.  0 WARNING(S),  0 ERROR(S)
